
cjpeg:     file format elf32-sparc

Disassembly of section .init:

000106d0 <_init>:
   106d0:	9d e3 bf a0 	save  %sp, -96, %sp
   106d4:	40 00 00 2a 	call  1077c <frame_dummy>
   106d8:	01 00 00 00 	nop 
   106dc:	40 00 41 42 	call  20be4 <__do_global_ctors_aux>
   106e0:	01 00 00 00 	nop 
   106e4:	81 c7 e0 08 	ret 
   106e8:	81 e8 00 00 	restore 
Disassembly of section .text:

000106ec <_start>:
   106ec:	bc 10 00 00 	mov  %g0, %fp
   106f0:	9c 23 a0 18 	sub  %sp, 0x18, %sp
   106f4:	d2 03 a0 58 	ld  [ %sp + 0x58 ], %o1
   106f8:	94 03 a0 5c 	add  %sp, 0x5c, %o2
   106fc:	11 00 00 44 	sethi  %hi(0x11000), %o0
   10700:	17 00 00 82 	sethi  %hi(0x20800), %o3
   10704:	19 00 00 82 	sethi  %hi(0x20800), %o4
   10708:	90 12 22 d8 	or  %o0, 0x2d8, %o0
   1070c:	96 12 e3 64 	or  %o3, 0x364, %o3
   10710:	98 13 23 dc 	or  %o4, 0x3dc, %o4
   10714:	9a 10 00 01 	mov  %g1, %o5
   10718:	40 00 8c 0d 	call  3374c <__libc_start_main@plt>
   1071c:	01 00 00 00 	nop 
   10720:	00 00 00 00 	unimp  0

00010724 <__do_global_dtors_aux>:
   10724:	9d e3 bf 98 	save  %sp, -104, %sp
   10728:	23 00 00 cd 	sethi  %hi(0x33400), %l1
   1072c:	c2 0c 63 e8 	ldub  [ %l1 + 0x3e8 ], %g1	! 337e8 <completed.1>
   10730:	80 a0 60 00 	cmp  %g1, 0
   10734:	12 80 00 0d 	bne  10768 <__do_global_dtors_aux+0x44>
   10738:	21 00 00 cd 	sethi  %hi(0x33400), %l0
   1073c:	10 80 00 05 	b  10750 <__do_global_dtors_aux+0x2c>
   10740:	c2 04 23 d8 	ld  [ %l0 + 0x3d8 ], %g1	! 337d8 <p.0>
   10744:	9f c0 80 00 	call  %g2
   10748:	c2 24 23 d8 	st  %g1, [ %l0 + 0x3d8 ]
   1074c:	c2 04 23 d8 	ld  [ %l0 + 0x3d8 ], %g1
   10750:	c4 00 40 00 	ld  [ %g1 ], %g2
   10754:	80 a0 a0 00 	cmp  %g2, 0
   10758:	12 bf ff fb 	bne  10744 <__do_global_dtors_aux+0x20>
   1075c:	82 00 60 04 	add  %g1, 4, %g1
   10760:	82 10 20 01 	mov  1, %g1
   10764:	c2 2c 63 e8 	stb  %g1, [ %l1 + 0x3e8 ]
   10768:	81 c7 e0 08 	ret 
   1076c:	81 e8 00 00 	restore 

00010770 <call___do_global_dtors_aux>:
   10770:	9d e3 bf 98 	save  %sp, -104, %sp
   10774:	81 c7 e0 08 	ret 
   10778:	81 e8 00 00 	restore 

0001077c <frame_dummy>:
   1077c:	05 00 00 cd 	sethi  %hi(0x33400), %g2
   10780:	c2 00 a1 c8 	ld  [ %g2 + 0x1c8 ], %g1	! 335c8 <__JCR_END__>
   10784:	80 a0 60 00 	cmp  %g1, 0
   10788:	02 80 00 0a 	be  107b0 <frame_dummy+0x34>
   1078c:	90 10 a1 c8 	or  %g2, 0x1c8, %o0
   10790:	03 00 00 00 	sethi  %hi(0), %g1
   10794:	82 10 60 00 	mov  %g1, %g1	! 0 <_init-0x106d0>
   10798:	80 a0 60 00 	cmp  %g1, 0
   1079c:	02 80 00 05 	be  107b0 <frame_dummy+0x34>
   107a0:	01 00 00 00 	nop 
   107a4:	82 13 c0 00 	mov  %o7, %g1
   107a8:	10 bf be 16 	b  0 <_init-0x106d0>
   107ac:	01 00 00 00 	nop 
   107b0:	01 00 00 00 	nop 
   107b4:	81 c3 e0 08 	retl 
   107b8:	01 00 00 00 	nop 

000107bc <call_frame_dummy>:
   107bc:	9d e3 bf 98 	save  %sp, -104, %sp
   107c0:	81 c7 e0 08 	ret 
   107c4:	81 e8 00 00 	restore 

000107c8 <select_file_type>:
   107c8:	9d e3 bf 98 	save  %sp, -104, %sp
   107cc:	03 00 00 cd 	sethi  %hi(0x33400), %g1
   107d0:	c2 00 63 f0 	ld  [ %g1 + 0x3f0 ], %g1	! 337f0 <is_targa>
   107d4:	80 a0 60 00 	cmp  %g1, 0
   107d8:	02 80 00 05 	be  107ec <select_file_type+0x24>
   107dc:	01 00 00 00 	nop 
   107e0:	40 00 0b 02 	call  133e8 <jinit_read_targa>
   107e4:	90 10 00 18 	mov  %i0, %o0
   107e8:	30 80 00 3d 	b,a   108dc <select_file_type+0x114>
   107ec:	40 00 8b f3 	call  337b8 <_IO_getc@plt>
   107f0:	90 10 00 19 	mov  %i1, %o0
   107f4:	80 a2 3f ff 	cmp  %o0, -1
   107f8:	12 80 00 09 	bne  1081c <select_file_type+0x54>
   107fc:	a0 10 00 08 	mov  %o0, %l0
   10800:	c4 06 00 00 	ld  [ %i0 ], %g2
   10804:	82 10 20 29 	mov  0x29, %g1
   10808:	c2 20 a0 14 	st  %g1, [ %g2 + 0x14 ]
   1080c:	c2 06 00 00 	ld  [ %i0 ], %g1
   10810:	c2 00 40 00 	ld  [ %g1 ], %g1
   10814:	9f c0 40 00 	call  %g1
   10818:	90 10 00 18 	mov  %i0, %o0
   1081c:	90 10 00 10 	mov  %l0, %o0
   10820:	40 00 8b b3 	call  336ec <ungetc@plt>
   10824:	92 10 00 19 	mov  %i1, %o1
   10828:	80 a2 3f ff 	cmp  %o0, -1
   1082c:	12 80 00 0a 	bne  10854 <select_file_type+0x8c>
   10830:	80 a4 20 47 	cmp  %l0, 0x47
   10834:	c4 06 00 00 	ld  [ %i0 ], %g2
   10838:	82 10 24 10 	mov  0x410, %g1
   1083c:	c2 20 a0 14 	st  %g1, [ %g2 + 0x14 ]
   10840:	c2 06 00 00 	ld  [ %i0 ], %g1
   10844:	c2 00 40 00 	ld  [ %g1 ], %g1
   10848:	9f c0 40 00 	call  %g1
   1084c:	90 10 00 18 	mov  %i0, %o0
   10850:	80 a4 20 47 	cmp  %l0, 0x47
   10854:	02 80 00 12 	be  1089c <select_file_type+0xd4>
   10858:	80 a4 20 47 	cmp  %l0, 0x47
   1085c:	14 80 00 09 	bg  10880 <select_file_type+0xb8>
   10860:	80 a4 20 50 	cmp  %l0, 0x50
   10864:	80 a4 20 00 	cmp  %l0, 0
   10868:	02 80 00 13 	be  108b4 <select_file_type+0xec>
   1086c:	80 a4 20 42 	cmp  %l0, 0x42
   10870:	02 80 00 08 	be  10890 <select_file_type+0xc8>
   10874:	01 00 00 00 	nop 
   10878:	10 80 00 12 	b  108c0 <select_file_type+0xf8>
   1087c:	c4 06 00 00 	ld  [ %i0 ], %g2
   10880:	02 80 00 0a 	be  108a8 <select_file_type+0xe0>
   10884:	01 00 00 00 	nop 
   10888:	10 80 00 0e 	b  108c0 <select_file_type+0xf8>
   1088c:	c4 06 00 00 	ld  [ %i0 ], %g2
   10890:	40 00 0d 8a 	call  13eb8 <jinit_read_bmp>
   10894:	90 10 00 18 	mov  %i0, %o0
   10898:	30 80 00 11 	b,a   108dc <select_file_type+0x114>
   1089c:	40 00 08 85 	call  12ab0 <jinit_read_gif>
   108a0:	90 10 00 18 	mov  %i0, %o0
   108a4:	30 80 00 0e 	b,a   108dc <select_file_type+0x114>
   108a8:	40 00 05 5d 	call  11e1c <jinit_read_ppm>
   108ac:	90 10 00 18 	mov  %i0, %o0
   108b0:	30 80 00 0b 	b,a   108dc <select_file_type+0x114>
   108b4:	40 00 0a cd 	call  133e8 <jinit_read_targa>
   108b8:	90 10 00 18 	mov  %i0, %o0
   108bc:	30 80 00 08 	b,a   108dc <select_file_type+0x114>
   108c0:	82 10 24 11 	mov  0x411, %g1
   108c4:	c2 20 a0 14 	st  %g1, [ %g2 + 0x14 ]
   108c8:	c2 06 00 00 	ld  [ %i0 ], %g1
   108cc:	c2 00 40 00 	ld  [ %g1 ], %g1
   108d0:	9f c0 40 00 	call  %g1
   108d4:	90 10 00 18 	mov  %i0, %o0
   108d8:	90 10 20 00 	clr  %o0
   108dc:	81 c7 e0 08 	ret 
   108e0:	91 e8 00 08 	restore  %g0, %o0, %o0

000108e4 <usage>:
   108e4:	9d e3 bf 98 	save  %sp, -104, %sp
   108e8:	21 00 00 cd 	sethi  %hi(0x33400), %l0
   108ec:	d0 04 23 e0 	ld  [ %l0 + 0x3e0 ], %o0	! 337e0 <stderr@@GLIBC_2.0>
   108f0:	13 00 00 85 	sethi  %hi(0x21400), %o1
   108f4:	92 12 60 80 	or  %o1, 0x80, %o1	! 21480 <_IO_stdin_used+0x838>
   108f8:	03 00 00 cd 	sethi  %hi(0x33400), %g1
   108fc:	40 00 8b 91 	call  33740 <fprintf@plt>
   10900:	d4 00 63 f4 	ld  [ %g1 + 0x3f4 ], %o2	! 337f4 <progname>
   10904:	11 00 00 85 	sethi  %hi(0x21400), %o0
   10908:	90 12 20 98 	or  %o0, 0x98, %o0	! 21498 <_IO_stdin_used+0x850>
   1090c:	92 10 20 01 	mov  1, %o1
   10910:	94 10 20 0c 	mov  0xc, %o2
   10914:	40 00 8b a6 	call  337ac <fwrite@plt>
   10918:	d6 04 23 e0 	ld  [ %l0 + 0x3e0 ], %o3
   1091c:	11 00 00 85 	sethi  %hi(0x21400), %o0
   10920:	90 12 20 a8 	or  %o0, 0xa8, %o0	! 214a8 <_IO_stdin_used+0x860>
   10924:	92 10 20 01 	mov  1, %o1
   10928:	94 10 20 25 	mov  0x25, %o2
   1092c:	40 00 8b a0 	call  337ac <fwrite@plt>
   10930:	d6 04 23 e0 	ld  [ %l0 + 0x3e0 ], %o3
   10934:	11 00 00 85 	sethi  %hi(0x21400), %o0
   10938:	90 12 20 d0 	or  %o0, 0xd0, %o0	! 214d0 <_IO_stdin_used+0x888>
   1093c:	92 10 20 01 	mov  1, %o1
   10940:	94 10 20 44 	mov  0x44, %o2
   10944:	40 00 8b 9a 	call  337ac <fwrite@plt>
   10948:	d6 04 23 e0 	ld  [ %l0 + 0x3e0 ], %o3
   1094c:	11 00 00 85 	sethi  %hi(0x21400), %o0
   10950:	90 12 21 18 	or  %o0, 0x118, %o0	! 21518 <_IO_stdin_used+0x8d0>
   10954:	92 10 20 01 	mov  1, %o1
   10958:	94 10 20 2d 	mov  0x2d, %o2
   1095c:	40 00 8b 94 	call  337ac <fwrite@plt>
   10960:	d6 04 23 e0 	ld  [ %l0 + 0x3e0 ], %o3
   10964:	11 00 00 85 	sethi  %hi(0x21400), %o0
   10968:	90 12 21 48 	or  %o0, 0x148, %o0	! 21548 <_IO_stdin_used+0x900>
   1096c:	92 10 20 01 	mov  1, %o1
   10970:	94 10 20 4d 	mov  0x4d, %o2
   10974:	40 00 8b 8e 	call  337ac <fwrite@plt>
   10978:	d6 04 23 e0 	ld  [ %l0 + 0x3e0 ], %o3
   1097c:	11 00 00 85 	sethi  %hi(0x21400), %o0
   10980:	90 12 21 98 	or  %o0, 0x198, %o0	! 21598 <_IO_stdin_used+0x950>
   10984:	92 10 20 01 	mov  1, %o1
   10988:	94 10 20 2e 	mov  0x2e, %o2
   1098c:	40 00 8b 88 	call  337ac <fwrite@plt>
   10990:	d6 04 23 e0 	ld  [ %l0 + 0x3e0 ], %o3
   10994:	11 00 00 85 	sethi  %hi(0x21400), %o0
   10998:	90 12 21 c8 	or  %o0, 0x1c8, %o0	! 215c8 <_IO_stdin_used+0x980>
   1099c:	92 10 20 01 	mov  1, %o1
   109a0:	94 10 20 41 	mov  0x41, %o2
   109a4:	40 00 8b 82 	call  337ac <fwrite@plt>
   109a8:	d6 04 23 e0 	ld  [ %l0 + 0x3e0 ], %o3
   109ac:	11 00 00 85 	sethi  %hi(0x21400), %o0
   109b0:	90 12 22 10 	or  %o0, 0x210, %o0	! 21610 <_IO_stdin_used+0x9c8>
   109b4:	92 10 20 01 	mov  1, %o1
   109b8:	94 10 20 1d 	mov  0x1d, %o2
   109bc:	40 00 8b 7c 	call  337ac <fwrite@plt>
   109c0:	d6 04 23 e0 	ld  [ %l0 + 0x3e0 ], %o3
   109c4:	d0 04 23 e0 	ld  [ %l0 + 0x3e0 ], %o0
   109c8:	13 00 00 85 	sethi  %hi(0x21400), %o1
   109cc:	92 12 62 30 	or  %o1, 0x230, %o1	! 21630 <_IO_stdin_used+0x9e8>
   109d0:	15 00 00 85 	sethi  %hi(0x21400), %o2
   109d4:	40 00 8b 5b 	call  33740 <fprintf@plt>
   109d8:	94 12 a2 60 	or  %o2, 0x260, %o2	! 21660 <_IO_stdin_used+0xa18>
   109dc:	d0 04 23 e0 	ld  [ %l0 + 0x3e0 ], %o0
   109e0:	13 00 00 85 	sethi  %hi(0x21400), %o1
   109e4:	92 12 62 70 	or  %o1, 0x270, %o1	! 21670 <_IO_stdin_used+0xa28>
   109e8:	23 00 00 83 	sethi  %hi(0x20c00), %l1
   109ec:	40 00 8b 55 	call  33740 <fprintf@plt>
   109f0:	94 14 62 c8 	or  %l1, 0x2c8, %o2	! 20ec8 <_IO_stdin_used+0x280>
   109f4:	d0 04 23 e0 	ld  [ %l0 + 0x3e0 ], %o0
   109f8:	13 00 00 83 	sethi  %hi(0x20c00), %o1
   109fc:	92 12 60 50 	or  %o1, 0x50, %o1	! 20c50 <_IO_stdin_used+0x8>
   10a00:	40 00 8b 50 	call  33740 <fprintf@plt>
   10a04:	94 14 62 c8 	or  %l1, 0x2c8, %o2
   10a08:	11 00 00 83 	sethi  %hi(0x20c00), %o0
   10a0c:	90 12 20 88 	or  %o0, 0x88, %o0	! 20c88 <_IO_stdin_used+0x40>
   10a10:	92 10 20 01 	mov  1, %o1
   10a14:	94 10 20 43 	mov  0x43, %o2
   10a18:	40 00 8b 65 	call  337ac <fwrite@plt>
   10a1c:	d6 04 23 e0 	ld  [ %l0 + 0x3e0 ], %o3
   10a20:	11 00 00 83 	sethi  %hi(0x20c00), %o0
   10a24:	90 12 20 d0 	or  %o0, 0xd0, %o0	! 20cd0 <_IO_stdin_used+0x88>
   10a28:	92 10 20 01 	mov  1, %o1
   10a2c:	94 10 20 3e 	mov  0x3e, %o2
   10a30:	40 00 8b 5f 	call  337ac <fwrite@plt>
   10a34:	d6 04 23 e0 	ld  [ %l0 + 0x3e0 ], %o3
   10a38:	11 00 00 83 	sethi  %hi(0x20c00), %o0
   10a3c:	90 12 21 10 	or  %o0, 0x110, %o0	! 20d10 <_IO_stdin_used+0xc8>
   10a40:	92 10 20 01 	mov  1, %o1
   10a44:	94 10 20 33 	mov  0x33, %o2
   10a48:	40 00 8b 59 	call  337ac <fwrite@plt>
   10a4c:	d6 04 23 e0 	ld  [ %l0 + 0x3e0 ], %o3
   10a50:	11 00 00 83 	sethi  %hi(0x20c00), %o0
   10a54:	90 12 21 48 	or  %o0, 0x148, %o0	! 20d48 <_IO_stdin_used+0x100>
   10a58:	92 10 20 01 	mov  1, %o1
   10a5c:	94 10 20 2e 	mov  0x2e, %o2
   10a60:	40 00 8b 53 	call  337ac <fwrite@plt>
   10a64:	d6 04 23 e0 	ld  [ %l0 + 0x3e0 ], %o3
   10a68:	11 00 00 83 	sethi  %hi(0x20c00), %o0
   10a6c:	90 12 21 78 	or  %o0, 0x178, %o0	! 20d78 <_IO_stdin_used+0x130>
   10a70:	92 10 20 01 	mov  1, %o1
   10a74:	94 10 20 2b 	mov  0x2b, %o2
   10a78:	40 00 8b 4d 	call  337ac <fwrite@plt>
   10a7c:	d6 04 23 e0 	ld  [ %l0 + 0x3e0 ], %o3
   10a80:	11 00 00 83 	sethi  %hi(0x20c00), %o0
   10a84:	90 12 21 a8 	or  %o0, 0x1a8, %o0	! 20da8 <_IO_stdin_used+0x160>
   10a88:	92 10 20 01 	mov  1, %o1
   10a8c:	94 10 20 16 	mov  0x16, %o2
   10a90:	40 00 8b 47 	call  337ac <fwrite@plt>
   10a94:	d6 04 23 e0 	ld  [ %l0 + 0x3e0 ], %o3
   10a98:	11 00 00 83 	sethi  %hi(0x20c00), %o0
   10a9c:	90 12 21 c0 	or  %o0, 0x1c0, %o0	! 20dc0 <_IO_stdin_used+0x178>
   10aa0:	92 10 20 01 	mov  1, %o1
   10aa4:	94 10 20 27 	mov  0x27, %o2
   10aa8:	40 00 8b 41 	call  337ac <fwrite@plt>
   10aac:	d6 04 23 e0 	ld  [ %l0 + 0x3e0 ], %o3
   10ab0:	11 00 00 83 	sethi  %hi(0x20c00), %o0
   10ab4:	90 12 21 e8 	or  %o0, 0x1e8, %o0	! 20de8 <_IO_stdin_used+0x1a0>
   10ab8:	92 10 20 01 	mov  1, %o1
   10abc:	94 10 20 37 	mov  0x37, %o2
   10ac0:	40 00 8b 3b 	call  337ac <fwrite@plt>
   10ac4:	d6 04 23 e0 	ld  [ %l0 + 0x3e0 ], %o3
   10ac8:	11 00 00 83 	sethi  %hi(0x20c00), %o0
   10acc:	90 12 22 20 	or  %o0, 0x220, %o0	! 20e20 <_IO_stdin_used+0x1d8>
   10ad0:	92 10 20 01 	mov  1, %o1
   10ad4:	94 10 20 37 	mov  0x37, %o2
   10ad8:	40 00 8b 35 	call  337ac <fwrite@plt>
   10adc:	d6 04 23 e0 	ld  [ %l0 + 0x3e0 ], %o3
   10ae0:	11 00 00 83 	sethi  %hi(0x20c00), %o0
   10ae4:	90 12 22 58 	or  %o0, 0x258, %o0	! 20e58 <_IO_stdin_used+0x210>
   10ae8:	92 10 20 01 	mov  1, %o1
   10aec:	94 10 20 34 	mov  0x34, %o2
   10af0:	40 00 8b 2f 	call  337ac <fwrite@plt>
   10af4:	d6 04 23 e0 	ld  [ %l0 + 0x3e0 ], %o3
   10af8:	11 00 00 83 	sethi  %hi(0x20c00), %o0
   10afc:	90 12 22 90 	or  %o0, 0x290, %o0	! 20e90 <_IO_stdin_used+0x248>
   10b00:	92 10 20 01 	mov  1, %o1
   10b04:	94 10 20 38 	mov  0x38, %o2
   10b08:	40 00 8b 29 	call  337ac <fwrite@plt>
   10b0c:	d6 04 23 e0 	ld  [ %l0 + 0x3e0 ], %o3
   10b10:	40 00 8b 1b 	call  3377c <exit@plt>
   10b14:	90 10 20 01 	mov  1, %o0
   10b18:	01 00 00 00 	nop 

00010b1c <parse_switches>:
   10b1c:	9d e3 bf 78 	save  %sp, -136, %sp
   10b20:	a2 10 00 18 	mov  %i0, %l1
   10b24:	a6 10 20 00 	clr  %l3
   10b28:	a8 10 20 00 	clr  %l4
   10b2c:	aa 10 20 00 	clr  %l5
   10b30:	ac 10 20 00 	clr  %l6
   10b34:	82 10 20 4b 	mov  0x4b, %g1
   10b38:	c2 27 bf ec 	st  %g1, [ %fp + -20 ]
   10b3c:	ba 10 20 64 	mov  0x64, %i5
   10b40:	a4 10 20 00 	clr  %l2
   10b44:	c0 27 bf dc 	clr  [ %fp + -36 ]
   10b48:	03 00 00 cd 	sethi  %hi(0x33400), %g1
   10b4c:	c0 20 63 f0 	clr  [ %g1 + 0x3f0 ]	! 337f0 <is_targa>
   10b50:	03 00 00 cd 	sethi  %hi(0x33400), %g1
   10b54:	c0 20 63 f8 	clr  [ %g1 + 0x3f8 ]	! 337f8 <outfilename>
   10b58:	c2 06 00 00 	ld  [ %i0 ], %g1
   10b5c:	b0 10 20 01 	mov  1, %i0
   10b60:	80 a6 00 19 	cmp  %i0, %i1
   10b64:	16 80 01 a5 	bge  111f8 <parse_switches+0x6dc>
   10b68:	c0 20 60 68 	clr  [ %g1 + 0x68 ]
   10b6c:	ae 10 20 01 	mov  1, %l7
   10b70:	83 2e 20 02 	sll  %i0, 2, %g1
   10b74:	e0 06 80 01 	ld  [ %i2 + %g1 ], %l0
   10b78:	c2 4c 00 00 	ldsb  [ %l0 ], %g1
   10b7c:	80 a0 60 2d 	cmp  %g1, 0x2d
   10b80:	02 80 00 06 	be  10b98 <parse_switches+0x7c>
   10b84:	80 a6 00 1b 	cmp  %i0, %i3
   10b88:	14 80 01 9c 	bg  111f8 <parse_switches+0x6dc>
   10b8c:	03 00 00 cd 	sethi  %hi(0x33400), %g1
   10b90:	10 80 01 96 	b  111e8 <parse_switches+0x6cc>
   10b94:	c0 20 63 f8 	clr  [ %g1 + 0x3f8 ]	! 337f8 <outfilename>
   10b98:	a0 04 20 01 	inc  %l0
   10b9c:	90 10 00 10 	mov  %l0, %o0
   10ba0:	13 00 00 85 	sethi  %hi(0x21400), %o1
   10ba4:	92 12 62 b0 	or  %o1, 0x2b0, %o1	! 216b0 <_IO_stdin_used+0xa68>
   10ba8:	40 00 0e e5 	call  1473c <keymatch>
   10bac:	94 10 20 01 	mov  1, %o2
   10bb0:	80 a2 20 00 	cmp  %o0, 0
   10bb4:	22 80 00 0b 	be,a   10be0 <parse_switches+0xc4>
   10bb8:	90 10 00 10 	mov  %l0, %o0
   10bbc:	03 00 00 cd 	sethi  %hi(0x33400), %g1
   10bc0:	d0 00 63 e0 	ld  [ %g1 + 0x3e0 ], %o0	! 337e0 <stderr@@GLIBC_2.0>
   10bc4:	13 00 00 85 	sethi  %hi(0x21400), %o1
   10bc8:	92 12 62 c0 	or  %o1, 0x2c0, %o1	! 216c0 <_IO_stdin_used+0xa78>
   10bcc:	03 00 00 cd 	sethi  %hi(0x33400), %g1
   10bd0:	40 00 8a dc 	call  33740 <fprintf@plt>
   10bd4:	d4 00 63 f4 	ld  [ %g1 + 0x3f4 ], %o2	! 337f4 <progname>
   10bd8:	40 00 8a e9 	call  3377c <exit@plt>
   10bdc:	90 10 20 01 	mov  1, %o0
   10be0:	13 00 00 85 	sethi  %hi(0x21400), %o1
   10be4:	92 12 62 f0 	or  %o1, 0x2f0, %o1	! 216f0 <_IO_stdin_used+0xaa8>
   10be8:	40 00 0e d5 	call  1473c <keymatch>
   10bec:	94 10 20 01 	mov  1, %o2
   10bf0:	80 a2 20 00 	cmp  %o0, 0
   10bf4:	02 80 00 04 	be  10c04 <parse_switches+0xe8>
   10bf8:	90 10 00 10 	mov  %l0, %o0
   10bfc:	10 80 01 7b 	b  111e8 <parse_switches+0x6cc>
   10c00:	a4 10 20 01 	mov  1, %l2
   10c04:	13 00 00 85 	sethi  %hi(0x21400), %o1
   10c08:	92 12 63 00 	or  %o1, 0x300, %o1	! 21700 <_IO_stdin_used+0xab8>
   10c0c:	40 00 0e cc 	call  1473c <keymatch>
   10c10:	94 10 20 02 	mov  2, %o2
   10c14:	80 a2 20 00 	cmp  %o0, 0
   10c18:	02 80 00 2b 	be  10cc4 <parse_switches+0x1a8>
   10c1c:	90 10 00 10 	mov  %l0, %o0
   10c20:	b0 06 20 01 	inc  %i0
   10c24:	80 a6 00 19 	cmp  %i0, %i1
   10c28:	06 80 00 05 	bl  10c3c <parse_switches+0x120>
   10c2c:	83 2e 20 02 	sll  %i0, 2, %g1
   10c30:	7f ff ff 2d 	call  108e4 <usage>
   10c34:	01 00 00 00 	nop 
   10c38:	83 2e 20 02 	sll  %i0, 2, %g1
   10c3c:	d0 06 80 01 	ld  [ %i2 + %g1 ], %o0
   10c40:	13 00 00 85 	sethi  %hi(0x21400), %o1
   10c44:	92 12 63 08 	or  %o1, 0x308, %o1	! 21708 <_IO_stdin_used+0xac0>
   10c48:	40 00 0e bd 	call  1473c <keymatch>
   10c4c:	94 10 20 01 	mov  1, %o2
   10c50:	80 a2 20 00 	cmp  %o0, 0
   10c54:	02 80 00 04 	be  10c64 <parse_switches+0x148>
   10c58:	83 2e 20 02 	sll  %i0, 2, %g1
   10c5c:	10 80 01 63 	b  111e8 <parse_switches+0x6cc>
   10c60:	c0 24 60 bc 	clr  [ %l1 + 0xbc ]
   10c64:	d0 06 80 01 	ld  [ %i2 + %g1 ], %o0
   10c68:	13 00 00 85 	sethi  %hi(0x21400), %o1
   10c6c:	92 12 63 10 	or  %o1, 0x310, %o1	! 21710 <_IO_stdin_used+0xac8>
   10c70:	40 00 0e b3 	call  1473c <keymatch>
   10c74:	94 10 20 02 	mov  2, %o2
   10c78:	80 a2 20 00 	cmp  %o0, 0
   10c7c:	02 80 00 04 	be  10c8c <parse_switches+0x170>
   10c80:	83 2e 20 02 	sll  %i0, 2, %g1
   10c84:	10 80 01 59 	b  111e8 <parse_switches+0x6cc>
   10c88:	ee 24 60 bc 	st  %l7, [ %l1 + 0xbc ]
   10c8c:	d0 06 80 01 	ld  [ %i2 + %g1 ], %o0
   10c90:	13 00 00 85 	sethi  %hi(0x21400), %o1
   10c94:	92 12 63 18 	or  %o1, 0x318, %o1	! 21718 <_IO_stdin_used+0xad0>
   10c98:	40 00 0e a9 	call  1473c <keymatch>
   10c9c:	94 10 20 02 	mov  2, %o2
   10ca0:	80 a2 20 00 	cmp  %o0, 0
   10ca4:	02 80 00 04 	be  10cb4 <parse_switches+0x198>
   10ca8:	82 10 20 02 	mov  2, %g1
   10cac:	10 80 01 4f 	b  111e8 <parse_switches+0x6cc>
   10cb0:	c2 24 60 bc 	st  %g1, [ %l1 + 0xbc ]
   10cb4:	7f ff ff 0c 	call  108e4 <usage>
   10cb8:	b0 06 20 01 	inc  %i0
   10cbc:	10 80 01 4d 	b  111f0 <parse_switches+0x6d4>
   10cc0:	80 a6 00 19 	cmp  %i0, %i1
   10cc4:	13 00 00 85 	sethi  %hi(0x21400), %o1
   10cc8:	92 12 63 20 	or  %o1, 0x320, %o1	! 21720 <_IO_stdin_used+0xad8>
   10ccc:	40 00 0e 9c 	call  1473c <keymatch>
   10cd0:	94 10 20 01 	mov  1, %o2
   10cd4:	80 a2 20 00 	cmp  %o0, 0
   10cd8:	32 80 00 0b 	bne,a   10d04 <parse_switches+0x1e8>
   10cdc:	21 00 00 cd 	sethi  %hi(0x33400), %l0
   10ce0:	90 10 00 10 	mov  %l0, %o0
   10ce4:	13 00 00 85 	sethi  %hi(0x21400), %o1
   10ce8:	92 12 63 28 	or  %o1, 0x328, %o1	! 21728 <_IO_stdin_used+0xae0>
   10cec:	40 00 0e 94 	call  1473c <keymatch>
   10cf0:	94 10 20 01 	mov  1, %o2
   10cf4:	80 a2 20 00 	cmp  %o0, 0
   10cf8:	02 80 00 16 	be  10d50 <parse_switches+0x234>
   10cfc:	90 10 00 10 	mov  %l0, %o0
   10d00:	21 00 00 cd 	sethi  %hi(0x33400), %l0
   10d04:	c2 04 23 ec 	ld  [ %l0 + 0x3ec ], %g1	! 337ec <printed_version.0>
   10d08:	80 a0 60 00 	cmp  %g1, 0
   10d0c:	32 80 00 0d 	bne,a   10d40 <parse_switches+0x224>
   10d10:	c4 04 40 00 	ld  [ %l1 ], %g2
   10d14:	03 00 00 cd 	sethi  %hi(0x33400), %g1
   10d18:	d0 00 63 e0 	ld  [ %g1 + 0x3e0 ], %o0	! 337e0 <stderr@@GLIBC_2.0>
   10d1c:	13 00 00 85 	sethi  %hi(0x21400), %o1
   10d20:	92 12 63 30 	or  %o1, 0x330, %o1	! 21730 <_IO_stdin_used+0xae8>
   10d24:	15 00 00 85 	sethi  %hi(0x21400), %o2
   10d28:	94 12 a3 60 	or  %o2, 0x360, %o2	! 21760 <_IO_stdin_used+0xb18>
   10d2c:	17 00 00 85 	sethi  %hi(0x21400), %o3
   10d30:	40 00 8a 84 	call  33740 <fprintf@plt>
   10d34:	96 12 e3 70 	or  %o3, 0x370, %o3	! 21770 <_IO_stdin_used+0xb28>
   10d38:	ee 24 23 ec 	st  %l7, [ %l0 + 0x3ec ]
   10d3c:	c4 04 40 00 	ld  [ %l1 ], %g2
   10d40:	c2 00 a0 68 	ld  [ %g2 + 0x68 ], %g1
   10d44:	82 00 60 01 	inc  %g1
   10d48:	10 80 01 28 	b  111e8 <parse_switches+0x6cc>
   10d4c:	c2 20 a0 68 	st  %g1, [ %g2 + 0x68 ]
   10d50:	13 00 00 85 	sethi  %hi(0x21400), %o1
   10d54:	92 12 63 98 	or  %o1, 0x398, %o1	! 21798 <_IO_stdin_used+0xb50>
   10d58:	40 00 0e 79 	call  1473c <keymatch>
   10d5c:	94 10 20 02 	mov  2, %o2
   10d60:	80 a2 20 00 	cmp  %o0, 0
   10d64:	12 80 00 0a 	bne  10d8c <parse_switches+0x270>
   10d68:	90 10 00 11 	mov  %l1, %o0
   10d6c:	90 10 00 10 	mov  %l0, %o0
   10d70:	13 00 00 85 	sethi  %hi(0x21400), %o1
   10d74:	92 12 63 a8 	or  %o1, 0x3a8, %o1	! 217a8 <_IO_stdin_used+0xb60>
   10d78:	40 00 0e 71 	call  1473c <keymatch>
   10d7c:	94 10 20 02 	mov  2, %o2
   10d80:	80 a2 20 00 	cmp  %o0, 0
   10d84:	02 80 00 06 	be  10d9c <parse_switches+0x280>
   10d88:	90 10 00 11 	mov  %l1, %o0
   10d8c:	40 00 11 8b 	call  153b8 <jpeg_set_colorspace>
   10d90:	92 10 20 01 	mov  1, %o1
   10d94:	10 80 01 16 	b  111ec <parse_switches+0x6d0>
   10d98:	b0 06 20 01 	inc  %i0
   10d9c:	90 10 00 10 	mov  %l0, %o0
   10da0:	13 00 00 85 	sethi  %hi(0x21400), %o1
   10da4:	92 12 63 b8 	or  %o1, 0x3b8, %o1	! 217b8 <_IO_stdin_used+0xb70>
   10da8:	40 00 0e 65 	call  1473c <keymatch>
   10dac:	94 10 20 03 	mov  3, %o2
   10db0:	80 a2 20 00 	cmp  %o0, 0
   10db4:	02 80 00 26 	be  10e4c <parse_switches+0x330>
   10db8:	82 10 20 78 	mov  0x78, %g1
   10dbc:	b0 06 20 01 	inc  %i0
   10dc0:	80 a6 00 19 	cmp  %i0, %i1
   10dc4:	06 80 00 04 	bl  10dd4 <parse_switches+0x2b8>
   10dc8:	c2 2f bf f3 	stb  %g1, [ %fp + -13 ]
   10dcc:	7f ff fe c6 	call  108e4 <usage>
   10dd0:	01 00 00 00 	nop 
   10dd4:	83 2e 20 02 	sll  %i0, 2, %g1
   10dd8:	d0 06 80 01 	ld  [ %i2 + %g1 ], %o0
   10ddc:	13 00 00 85 	sethi  %hi(0x21400), %o1
   10de0:	92 12 63 c8 	or  %o1, 0x3c8, %o1	! 217c8 <_IO_stdin_used+0xb80>
   10de4:	94 07 bf f4 	add  %fp, -12, %o2
   10de8:	40 00 8a 5c 	call  33758 <sscanf@plt>
   10dec:	96 07 bf f3 	add  %fp, -13, %o3
   10df0:	80 a2 20 00 	cmp  %o0, 0
   10df4:	14 80 00 05 	bg  10e08 <parse_switches+0x2ec>
   10df8:	c2 4f bf f3 	ldsb  [ %fp + -13 ], %g1
   10dfc:	7f ff fe ba 	call  108e4 <usage>
   10e00:	01 00 00 00 	nop 
   10e04:	c2 4f bf f3 	ldsb  [ %fp + -13 ], %g1
   10e08:	84 18 60 6d 	xor  %g1, 0x6d, %g2
   10e0c:	80 a0 00 02 	cmp  %g0, %g2
   10e10:	84 60 3f ff 	subx  %g0, -1, %g2
   10e14:	82 18 60 4d 	xor  %g1, 0x4d, %g1
   10e18:	80 a0 00 01 	cmp  %g0, %g1
   10e1c:	82 60 3f ff 	subx  %g0, -1, %g1
   10e20:	80 90 80 01 	orcc  %g2, %g1, %g0
   10e24:	22 80 00 06 	be,a   10e3c <parse_switches+0x320>
   10e28:	c4 04 60 04 	ld  [ %l1 + 4 ], %g2
   10e2c:	c2 07 bf f4 	ld  [ %fp + -12 ], %g1
   10e30:	82 58 63 e8 	smul  %g1, 0x3e8, %g1
   10e34:	c2 27 bf f4 	st  %g1, [ %fp + -12 ]
   10e38:	c4 04 60 04 	ld  [ %l1 + 4 ], %g2
   10e3c:	c2 07 bf f4 	ld  [ %fp + -12 ], %g1
   10e40:	82 58 63 e8 	smul  %g1, 0x3e8, %g1
   10e44:	10 80 00 e9 	b  111e8 <parse_switches+0x6cc>
   10e48:	c2 20 a0 2c 	st  %g1, [ %g2 + 0x2c ]
   10e4c:	90 10 00 10 	mov  %l0, %o0
   10e50:	13 00 00 85 	sethi  %hi(0x21400), %o1
   10e54:	92 12 63 d0 	or  %o1, 0x3d0, %o1	! 217d0 <_IO_stdin_used+0xb88>
   10e58:	40 00 0e 39 	call  1473c <keymatch>
   10e5c:	94 10 20 01 	mov  1, %o2
   10e60:	80 a2 20 00 	cmp  %o0, 0
   10e64:	32 80 00 e1 	bne,a   111e8 <parse_switches+0x6cc>
   10e68:	ee 24 60 b0 	st  %l7, [ %l1 + 0xb0 ]
   10e6c:	90 10 00 10 	mov  %l0, %o0
   10e70:	13 00 00 85 	sethi  %hi(0x21400), %o1
   10e74:	92 12 63 e0 	or  %o1, 0x3e0, %o1	! 217e0 <_IO_stdin_used+0xb98>
   10e78:	40 00 0e 31 	call  1473c <keymatch>
   10e7c:	94 10 20 01 	mov  1, %o2
   10e80:	80 a2 20 00 	cmp  %o0, 0
   10e84:	02 80 00 04 	be  10e94 <parse_switches+0x378>
   10e88:	90 10 00 10 	mov  %l0, %o0
   10e8c:	10 80 00 d7 	b  111e8 <parse_switches+0x6cc>
   10e90:	ee 24 60 b0 	st  %l7, [ %l1 + 0xb0 ]
   10e94:	13 00 00 85 	sethi  %hi(0x21400), %o1
   10e98:	92 12 63 f0 	or  %o1, 0x3f0, %o1	! 217f0 <_IO_stdin_used+0xba8>
   10e9c:	40 00 0e 28 	call  1473c <keymatch>
   10ea0:	94 10 20 04 	mov  4, %o2
   10ea4:	80 a2 20 00 	cmp  %o0, 0
   10ea8:	02 80 00 0d 	be  10edc <parse_switches+0x3c0>
   10eac:	90 10 00 10 	mov  %l0, %o0
   10eb0:	b0 06 20 01 	inc  %i0
   10eb4:	80 a6 00 19 	cmp  %i0, %i1
   10eb8:	06 80 00 05 	bl  10ecc <parse_switches+0x3b0>
   10ebc:	83 2e 20 02 	sll  %i0, 2, %g1
   10ec0:	7f ff fe 89 	call  108e4 <usage>
   10ec4:	01 00 00 00 	nop 
   10ec8:	83 2e 20 02 	sll  %i0, 2, %g1
   10ecc:	c4 06 80 01 	ld  [ %i2 + %g1 ], %g2
   10ed0:	03 00 00 cd 	sethi  %hi(0x33400), %g1
   10ed4:	10 80 00 c5 	b  111e8 <parse_switches+0x6cc>
   10ed8:	c4 20 63 f8 	st  %g2, [ %g1 + 0x3f8 ]	! 337f8 <outfilename>
   10edc:	13 00 00 85 	sethi  %hi(0x21400), %o1
   10ee0:	92 12 63 f8 	or  %o1, 0x3f8, %o1	! 217f8 <_IO_stdin_used+0xbb0>
   10ee4:	40 00 0e 16 	call  1473c <keymatch>
   10ee8:	94 10 20 01 	mov  1, %o2
   10eec:	80 a2 20 00 	cmp  %o0, 0
   10ef0:	02 80 00 04 	be  10f00 <parse_switches+0x3e4>
   10ef4:	82 10 20 01 	mov  1, %g1
   10ef8:	10 80 00 bc 	b  111e8 <parse_switches+0x6cc>
   10efc:	c2 27 bf dc 	st  %g1, [ %fp + -36 ]
   10f00:	90 10 00 10 	mov  %l0, %o0
   10f04:	13 00 00 86 	sethi  %hi(0x21800), %o1
   10f08:	92 12 60 08 	or  %o1, 8, %o1	! 21808 <_IO_stdin_used+0xbc0>
   10f0c:	40 00 0e 0c 	call  1473c <keymatch>
   10f10:	94 10 20 01 	mov  1, %o2
   10f14:	80 a2 20 00 	cmp  %o0, 0
   10f18:	02 80 00 17 	be  10f74 <parse_switches+0x458>
   10f1c:	90 10 00 10 	mov  %l0, %o0
   10f20:	b0 06 20 01 	inc  %i0
   10f24:	80 a6 00 19 	cmp  %i0, %i1
   10f28:	06 80 00 05 	bl  10f3c <parse_switches+0x420>
   10f2c:	83 2e 20 02 	sll  %i0, 2, %g1
   10f30:	7f ff fe 6d 	call  108e4 <usage>
   10f34:	01 00 00 00 	nop 
   10f38:	83 2e 20 02 	sll  %i0, 2, %g1
   10f3c:	d0 06 80 01 	ld  [ %i2 + %g1 ], %o0
   10f40:	13 00 00 8b 	sethi  %hi(0x22c00), %o1
   10f44:	92 12 61 40 	or  %o1, 0x140, %o1	! 22d40 <jpeg_natural_order+0xd7c>
   10f48:	40 00 8a 04 	call  33758 <sscanf@plt>
   10f4c:	94 07 bf ec 	add  %fp, -20, %o2
   10f50:	80 a2 20 01 	cmp  %o0, 1
   10f54:	02 80 00 04 	be  10f64 <parse_switches+0x448>
   10f58:	01 00 00 00 	nop 
   10f5c:	7f ff fe 62 	call  108e4 <usage>
   10f60:	01 00 00 00 	nop 
   10f64:	40 00 10 55 	call  150b8 <jpeg_quality_scaling>
   10f68:	d0 07 bf ec 	ld  [ %fp + -20 ], %o0
   10f6c:	10 80 00 9f 	b  111e8 <parse_switches+0x6cc>
   10f70:	ba 10 00 08 	mov  %o0, %i5
   10f74:	13 00 00 86 	sethi  %hi(0x21800), %o1
   10f78:	92 12 60 10 	or  %o1, 0x10, %o1	! 21810 <_IO_stdin_used+0xbc8>
   10f7c:	40 00 0d f0 	call  1473c <keymatch>
   10f80:	94 10 20 02 	mov  2, %o2
   10f84:	80 a2 20 00 	cmp  %o0, 0
   10f88:	02 80 00 0b 	be  10fb4 <parse_switches+0x498>
   10f8c:	90 10 00 10 	mov  %l0, %o0
   10f90:	b0 06 20 01 	inc  %i0
   10f94:	80 a6 00 19 	cmp  %i0, %i1
   10f98:	06 80 00 05 	bl  10fac <parse_switches+0x490>
   10f9c:	83 2e 20 02 	sll  %i0, 2, %g1
   10fa0:	7f ff fe 51 	call  108e4 <usage>
   10fa4:	01 00 00 00 	nop 
   10fa8:	83 2e 20 02 	sll  %i0, 2, %g1
   10fac:	10 80 00 8f 	b  111e8 <parse_switches+0x6cc>
   10fb0:	e8 06 80 01 	ld  [ %i2 + %g1 ], %l4
   10fb4:	13 00 00 86 	sethi  %hi(0x21800), %o1
   10fb8:	92 12 60 18 	or  %o1, 0x18, %o1	! 21818 <_IO_stdin_used+0xbd0>
   10fbc:	40 00 0d e0 	call  1473c <keymatch>
   10fc0:	94 10 20 02 	mov  2, %o2
   10fc4:	80 a2 20 00 	cmp  %o0, 0
   10fc8:	02 80 00 0b 	be  10ff4 <parse_switches+0x4d8>
   10fcc:	90 10 00 10 	mov  %l0, %o0
   10fd0:	b0 06 20 01 	inc  %i0
   10fd4:	80 a6 00 19 	cmp  %i0, %i1
   10fd8:	06 80 00 05 	bl  10fec <parse_switches+0x4d0>
   10fdc:	83 2e 20 02 	sll  %i0, 2, %g1
   10fe0:	7f ff fe 41 	call  108e4 <usage>
   10fe4:	01 00 00 00 	nop 
   10fe8:	83 2e 20 02 	sll  %i0, 2, %g1
   10fec:	10 80 00 7f 	b  111e8 <parse_switches+0x6cc>
   10ff0:	e6 06 80 01 	ld  [ %i2 + %g1 ], %l3
   10ff4:	13 00 00 86 	sethi  %hi(0x21800), %o1
   10ff8:	92 12 60 20 	or  %o1, 0x20, %o1	! 21820 <_IO_stdin_used+0xbd8>
   10ffc:	40 00 0d d0 	call  1473c <keymatch>
   11000:	94 10 20 01 	mov  1, %o2
   11004:	80 a2 20 00 	cmp  %o0, 0
   11008:	02 80 00 2b 	be  110b4 <parse_switches+0x598>
   1100c:	82 10 20 78 	mov  0x78, %g1
   11010:	b0 06 20 01 	inc  %i0
   11014:	80 a6 00 19 	cmp  %i0, %i1
   11018:	06 80 00 04 	bl  11028 <parse_switches+0x50c>
   1101c:	c2 2f bf e7 	stb  %g1, [ %fp + -25 ]
   11020:	7f ff fe 31 	call  108e4 <usage>
   11024:	01 00 00 00 	nop 
   11028:	83 2e 20 02 	sll  %i0, 2, %g1
   1102c:	d0 06 80 01 	ld  [ %i2 + %g1 ], %o0
   11030:	13 00 00 85 	sethi  %hi(0x21400), %o1
   11034:	92 12 63 c8 	or  %o1, 0x3c8, %o1	! 217c8 <_IO_stdin_used+0xb80>
   11038:	94 07 bf e8 	add  %fp, -24, %o2
   1103c:	40 00 89 c7 	call  33758 <sscanf@plt>
   11040:	96 07 bf e7 	add  %fp, -25, %o3
   11044:	80 a2 20 00 	cmp  %o0, 0
   11048:	14 80 00 05 	bg  1105c <parse_switches+0x540>
   1104c:	c4 07 bf e8 	ld  [ %fp + -24 ], %g2
   11050:	7f ff fe 25 	call  108e4 <usage>
   11054:	01 00 00 00 	nop 
   11058:	c4 07 bf e8 	ld  [ %fp + -24 ], %g2
   1105c:	03 00 00 3f 	sethi  %hi(0xfc00), %g1
   11060:	82 10 63 ff 	or  %g1, 0x3ff, %g1	! ffff <_init-0x6d1>
   11064:	80 a0 80 01 	cmp  %g2, %g1
   11068:	08 80 00 05 	bleu  1107c <parse_switches+0x560>
   1106c:	c2 4f bf e7 	ldsb  [ %fp + -25 ], %g1
   11070:	7f ff fe 1d 	call  108e4 <usage>
   11074:	01 00 00 00 	nop 
   11078:	c2 4f bf e7 	ldsb  [ %fp + -25 ], %g1
   1107c:	84 18 60 62 	xor  %g1, 0x62, %g2
   11080:	80 a0 00 02 	cmp  %g0, %g2
   11084:	84 60 3f ff 	subx  %g0, -1, %g2
   11088:	82 18 60 42 	xor  %g1, 0x42, %g1
   1108c:	80 a0 00 01 	cmp  %g0, %g1
   11090:	82 60 3f ff 	subx  %g0, -1, %g1
   11094:	80 90 80 01 	orcc  %g2, %g1, %g0
   11098:	02 80 00 05 	be  110ac <parse_switches+0x590>
   1109c:	c2 07 bf e8 	ld  [ %fp + -24 ], %g1
   110a0:	c2 24 60 c0 	st  %g1, [ %l1 + 0xc0 ]
   110a4:	10 80 00 51 	b  111e8 <parse_switches+0x6cc>
   110a8:	c0 24 60 c4 	clr  [ %l1 + 0xc4 ]
   110ac:	10 80 00 4f 	b  111e8 <parse_switches+0x6cc>
   110b0:	c2 24 60 c4 	st  %g1, [ %l1 + 0xc4 ]
   110b4:	90 10 00 10 	mov  %l0, %o0
   110b8:	13 00 00 86 	sethi  %hi(0x21800), %o1
   110bc:	92 12 60 28 	or  %o1, 0x28, %o1	! 21828 <_IO_stdin_used+0xbe0>
   110c0:	40 00 0d 9f 	call  1473c <keymatch>
   110c4:	94 10 20 02 	mov  2, %o2
   110c8:	80 a2 20 00 	cmp  %o0, 0
   110cc:	02 80 00 0b 	be  110f8 <parse_switches+0x5dc>
   110d0:	90 10 00 10 	mov  %l0, %o0
   110d4:	b0 06 20 01 	inc  %i0
   110d8:	80 a6 00 19 	cmp  %i0, %i1
   110dc:	06 80 00 05 	bl  110f0 <parse_switches+0x5d4>
   110e0:	83 2e 20 02 	sll  %i0, 2, %g1
   110e4:	7f ff fe 00 	call  108e4 <usage>
   110e8:	01 00 00 00 	nop 
   110ec:	83 2e 20 02 	sll  %i0, 2, %g1
   110f0:	10 80 00 3e 	b  111e8 <parse_switches+0x6cc>
   110f4:	ea 06 80 01 	ld  [ %i2 + %g1 ], %l5
   110f8:	13 00 00 86 	sethi  %hi(0x21800), %o1
   110fc:	92 12 60 30 	or  %o1, 0x30, %o1	! 21830 <_IO_stdin_used+0xbe8>
   11100:	40 00 0d 8f 	call  1473c <keymatch>
   11104:	94 10 20 02 	mov  2, %o2
   11108:	80 a2 20 00 	cmp  %o0, 0
   1110c:	02 80 00 0b 	be  11138 <parse_switches+0x61c>
   11110:	90 10 00 10 	mov  %l0, %o0
   11114:	b0 06 20 01 	inc  %i0
   11118:	80 a6 00 19 	cmp  %i0, %i1
   1111c:	06 80 00 05 	bl  11130 <parse_switches+0x614>
   11120:	83 2e 20 02 	sll  %i0, 2, %g1
   11124:	7f ff fd f0 	call  108e4 <usage>
   11128:	01 00 00 00 	nop 
   1112c:	83 2e 20 02 	sll  %i0, 2, %g1
   11130:	10 80 00 2e 	b  111e8 <parse_switches+0x6cc>
   11134:	ec 06 80 01 	ld  [ %i2 + %g1 ], %l6
   11138:	13 00 00 86 	sethi  %hi(0x21800), %o1
   1113c:	92 12 60 38 	or  %o1, 0x38, %o1	! 21838 <_IO_stdin_used+0xbf0>
   11140:	40 00 0d 7f 	call  1473c <keymatch>
   11144:	94 10 20 02 	mov  2, %o2
   11148:	80 a2 20 00 	cmp  %o0, 0
   1114c:	02 80 00 1c 	be  111bc <parse_switches+0x6a0>
   11150:	90 10 00 10 	mov  %l0, %o0
   11154:	b0 06 20 01 	inc  %i0
   11158:	80 a6 00 19 	cmp  %i0, %i1
   1115c:	06 80 00 05 	bl  11170 <parse_switches+0x654>
   11160:	83 2e 20 02 	sll  %i0, 2, %g1
   11164:	7f ff fd e0 	call  108e4 <usage>
   11168:	01 00 00 00 	nop 
   1116c:	83 2e 20 02 	sll  %i0, 2, %g1
   11170:	d0 06 80 01 	ld  [ %i2 + %g1 ], %o0
   11174:	13 00 00 8b 	sethi  %hi(0x22c00), %o1
   11178:	92 12 61 40 	or  %o1, 0x140, %o1	! 22d40 <jpeg_natural_order+0xd7c>
   1117c:	40 00 89 77 	call  33758 <sscanf@plt>
   11180:	94 07 bf e0 	add  %fp, -32, %o2
   11184:	80 a2 20 01 	cmp  %o0, 1
   11188:	02 80 00 05 	be  1119c <parse_switches+0x680>
   1118c:	c2 07 bf e0 	ld  [ %fp + -32 ], %g1
   11190:	7f ff fd d5 	call  108e4 <usage>
   11194:	01 00 00 00 	nop 
   11198:	c2 07 bf e0 	ld  [ %fp + -32 ], %g1
   1119c:	80 a0 60 64 	cmp  %g1, 0x64
   111a0:	08 80 00 05 	bleu  111b4 <parse_switches+0x698>
   111a4:	c2 07 bf e0 	ld  [ %fp + -32 ], %g1
   111a8:	7f ff fd cf 	call  108e4 <usage>
   111ac:	01 00 00 00 	nop 
   111b0:	c2 07 bf e0 	ld  [ %fp + -32 ], %g1
   111b4:	10 80 00 0d 	b  111e8 <parse_switches+0x6cc>
   111b8:	c2 24 60 b8 	st  %g1, [ %l1 + 0xb8 ]
   111bc:	13 00 00 86 	sethi  %hi(0x21800), %o1
   111c0:	92 12 60 40 	or  %o1, 0x40, %o1	! 21840 <_IO_stdin_used+0xbf8>
   111c4:	40 00 0d 5e 	call  1473c <keymatch>
   111c8:	94 10 20 01 	mov  1, %o2
   111cc:	80 a2 20 00 	cmp  %o0, 0
   111d0:	02 80 00 04 	be  111e0 <parse_switches+0x6c4>
   111d4:	03 00 00 cd 	sethi  %hi(0x33400), %g1
   111d8:	10 80 00 04 	b  111e8 <parse_switches+0x6cc>
   111dc:	ee 20 63 f0 	st  %l7, [ %g1 + 0x3f0 ]	! 337f0 <is_targa>
   111e0:	7f ff fd c1 	call  108e4 <usage>
   111e4:	01 00 00 00 	nop 
   111e8:	b0 06 20 01 	inc  %i0
   111ec:	80 a6 00 19 	cmp  %i0, %i1
   111f0:	06 bf fe 61 	bl  10b74 <parse_switches+0x58>
   111f4:	83 2e 20 02 	sll  %i0, 2, %g1
   111f8:	80 a7 20 00 	cmp  %i4, 0
   111fc:	02 80 00 35 	be  112d0 <parse_switches+0x7b4>
   11200:	90 10 00 11 	mov  %l1, %o0
   11204:	d2 07 bf ec 	ld  [ %fp + -20 ], %o1
   11208:	40 00 0f c2 	call  15110 <jpeg_set_quality>
   1120c:	94 10 00 12 	mov  %l2, %o2
   11210:	80 a4 e0 00 	cmp  %l3, 0
   11214:	02 80 00 0b 	be  11240 <parse_switches+0x724>
   11218:	90 10 00 11 	mov  %l1, %o0
   1121c:	92 10 00 13 	mov  %l3, %o1
   11220:	94 10 00 1d 	mov  %i5, %o2
   11224:	40 00 0b 7a 	call  1400c <read_quant_tables>
   11228:	96 10 00 12 	mov  %l2, %o3
   1122c:	80 a2 20 00 	cmp  %o0, 0
   11230:	12 80 00 05 	bne  11244 <parse_switches+0x728>
   11234:	80 a5 20 00 	cmp  %l4, 0
   11238:	7f ff fd ab 	call  108e4 <usage>
   1123c:	01 00 00 00 	nop 
   11240:	80 a5 20 00 	cmp  %l4, 0
   11244:	02 80 00 09 	be  11268 <parse_switches+0x74c>
   11248:	90 10 00 11 	mov  %l1, %o0
   1124c:	40 00 0c ae 	call  14504 <set_quant_slots>
   11250:	92 10 00 14 	mov  %l4, %o1
   11254:	80 a2 20 00 	cmp  %o0, 0
   11258:	12 80 00 05 	bne  1126c <parse_switches+0x750>
   1125c:	80 a5 60 00 	cmp  %l5, 0
   11260:	7f ff fd a1 	call  108e4 <usage>
   11264:	01 00 00 00 	nop 
   11268:	80 a5 60 00 	cmp  %l5, 0
   1126c:	02 80 00 09 	be  11290 <parse_switches+0x774>
   11270:	90 10 00 11 	mov  %l1, %o0
   11274:	40 00 0c df 	call  145f0 <set_sample_factors>
   11278:	92 10 00 15 	mov  %l5, %o1
   1127c:	80 a2 20 00 	cmp  %o0, 0
   11280:	12 80 00 05 	bne  11294 <parse_switches+0x778>
   11284:	c2 07 bf dc 	ld  [ %fp + -36 ], %g1
   11288:	7f ff fd 97 	call  108e4 <usage>
   1128c:	01 00 00 00 	nop 
   11290:	c2 07 bf dc 	ld  [ %fp + -36 ], %g1
   11294:	80 a0 60 00 	cmp  %g1, 0
   11298:	02 80 00 05 	be  112ac <parse_switches+0x790>
   1129c:	80 a5 a0 00 	cmp  %l6, 0
   112a0:	40 00 11 5b 	call  1580c <jpeg_simple_progression>
   112a4:	90 10 00 11 	mov  %l1, %o0
   112a8:	80 a5 a0 00 	cmp  %l6, 0
   112ac:	02 80 00 09 	be  112d0 <parse_switches+0x7b4>
   112b0:	90 10 00 11 	mov  %l1, %o0
   112b4:	40 00 0b e5 	call  14248 <read_scan_script>
   112b8:	92 10 00 16 	mov  %l6, %o1
   112bc:	80 a2 20 00 	cmp  %o0, 0
   112c0:	12 80 00 04 	bne  112d0 <parse_switches+0x7b4>
   112c4:	01 00 00 00 	nop 
   112c8:	7f ff fd 87 	call  108e4 <usage>
   112cc:	01 00 00 00 	nop 
   112d0:	81 c7 e0 08 	ret 
   112d4:	81 e8 00 00 	restore 

000112d8 <main>:
   112d8:	9d e3 bd a8 	save  %sp, -600, %sp
   112dc:	c4 06 40 00 	ld  [ %i1 ], %g2
   112e0:	03 00 00 cd 	sethi  %hi(0x33400), %g1
   112e4:	80 a0 a0 00 	cmp  %g2, 0
   112e8:	02 80 00 06 	be  11300 <main+0x28>
   112ec:	c4 20 63 f4 	st  %g2, [ %g1 + 0x3f4 ]
   112f0:	c2 48 80 00 	ldsb  [ %g2 ], %g1
   112f4:	80 a0 60 00 	cmp  %g1, 0
   112f8:	12 80 00 06 	bne  11310 <main+0x38>
   112fc:	01 00 00 00 	nop 
   11300:	03 00 00 86 	sethi  %hi(0x21800), %g1
   11304:	82 10 60 48 	or  %g1, 0x48, %g1	! 21848 <_IO_stdin_used+0xc00>
   11308:	05 00 00 cd 	sethi  %hi(0x33400), %g2
   1130c:	c2 20 a3 f4 	st  %g1, [ %g2 + 0x3f4 ]	! 337f4 <progname>
   11310:	40 00 33 6d 	call  1e0c4 <jpeg_std_error>
   11314:	90 07 be 08 	add  %fp, -504, %o0
   11318:	d0 27 be 90 	st  %o0, [ %fp + -368 ]
   1131c:	a0 07 be 90 	add  %fp, -368, %l0
   11320:	90 10 00 10 	mov  %l0, %o0
   11324:	92 10 20 3d 	mov  0x3d, %o1
   11328:	40 00 0d 38 	call  14808 <jpeg_CreateCompress>
   1132c:	94 10 21 68 	mov  0x168, %o2
   11330:	03 00 00 86 	sethi  %hi(0x21800), %g1
   11334:	82 10 60 94 	or  %g1, 0x94, %g1	! 21894 <cdjpeg_message_table>
   11338:	c2 27 be 80 	st  %g1, [ %fp + -384 ]
   1133c:	82 10 23 e8 	mov  0x3e8, %g1
   11340:	c2 27 be 84 	st  %g1, [ %fp + -380 ]
   11344:	82 10 24 13 	mov  0x413, %g1
   11348:	c2 27 be 88 	st  %g1, [ %fp + -376 ]
   1134c:	82 10 20 02 	mov  2, %g1
   11350:	c2 27 be b4 	st  %g1, [ %fp + -332 ]
   11354:	40 00 0f ae 	call  1520c <jpeg_set_defaults>
   11358:	90 10 00 10 	mov  %l0, %o0
   1135c:	90 10 00 10 	mov  %l0, %o0
   11360:	92 10 00 18 	mov  %i0, %o1
   11364:	94 10 00 19 	mov  %i1, %o2
   11368:	96 10 20 00 	clr  %o3
   1136c:	7f ff fd ec 	call  10b1c <parse_switches>
   11370:	98 10 20 00 	clr  %o4
   11374:	82 06 3f ff 	add  %i0, -1, %g1
   11378:	80 a0 40 08 	cmp  %g1, %o0
   1137c:	04 80 00 0b 	ble  113a8 <main+0xd0>
   11380:	a0 10 00 08 	mov  %o0, %l0
   11384:	03 00 00 cd 	sethi  %hi(0x33400), %g1
   11388:	d0 00 63 e0 	ld  [ %g1 + 0x3e0 ], %o0	! 337e0 <stderr@@GLIBC_2.0>
   1138c:	13 00 00 86 	sethi  %hi(0x21800), %o1
   11390:	92 12 60 50 	or  %o1, 0x50, %o1	! 21850 <_IO_stdin_used+0xc08>
   11394:	03 00 00 cd 	sethi  %hi(0x33400), %g1
   11398:	40 00 88 ea 	call  33740 <fprintf@plt>
   1139c:	d4 00 63 f4 	ld  [ %g1 + 0x3f4 ], %o2	! 337f4 <progname>
   113a0:	7f ff fd 51 	call  108e4 <usage>
   113a4:	01 00 00 00 	nop 
   113a8:	80 a4 00 18 	cmp  %l0, %i0
   113ac:	16 80 00 13 	bge  113f8 <main+0x120>
   113b0:	a1 2c 20 02 	sll  %l0, 2, %l0
   113b4:	d0 06 40 10 	ld  [ %i1 + %l0 ], %o0
   113b8:	13 00 00 86 	sethi  %hi(0x21800), %o1
   113bc:	40 00 88 f9 	call  337a0 <fopen@plt>
   113c0:	92 12 60 70 	or  %o1, 0x70, %o1	! 21870 <_IO_stdin_used+0xc28>
   113c4:	80 a2 20 00 	cmp  %o0, 0
   113c8:	12 80 00 0f 	bne  11404 <main+0x12c>
   113cc:	a4 10 00 08 	mov  %o0, %l2
   113d0:	03 00 00 cd 	sethi  %hi(0x33400), %g1
   113d4:	d0 00 63 e0 	ld  [ %g1 + 0x3e0 ], %o0	! 337e0 <stderr@@GLIBC_2.0>
   113d8:	13 00 00 86 	sethi  %hi(0x21800), %o1
   113dc:	92 12 60 78 	or  %o1, 0x78, %o1	! 21878 <_IO_stdin_used+0xc30>
   113e0:	03 00 00 cd 	sethi  %hi(0x33400), %g1
   113e4:	d4 00 63 f4 	ld  [ %g1 + 0x3f4 ], %o2	! 337f4 <progname>
   113e8:	40 00 88 d6 	call  33740 <fprintf@plt>
   113ec:	d6 06 40 10 	ld  [ %i1 + %l0 ], %o3
   113f0:	40 00 88 e3 	call  3377c <exit@plt>
   113f4:	90 10 20 01 	mov  1, %o0
   113f8:	40 00 0c fe 	call  147f0 <read_stdin>
   113fc:	01 00 00 00 	nop 
   11400:	a4 10 00 08 	mov  %o0, %l2
   11404:	21 00 00 cd 	sethi  %hi(0x33400), %l0
   11408:	d0 04 23 f8 	ld  [ %l0 + 0x3f8 ], %o0	! 337f8 <outfilename>
   1140c:	80 a2 20 00 	cmp  %o0, 0
   11410:	02 80 00 12 	be  11458 <main+0x180>
   11414:	01 00 00 00 	nop 
   11418:	13 00 00 86 	sethi  %hi(0x21800), %o1
   1141c:	40 00 88 e1 	call  337a0 <fopen@plt>
   11420:	92 12 60 90 	or  %o1, 0x90, %o1	! 21890 <_IO_stdin_used+0xc48>
   11424:	80 a2 20 00 	cmp  %o0, 0
   11428:	12 80 00 0f 	bne  11464 <main+0x18c>
   1142c:	a6 10 00 08 	mov  %o0, %l3
   11430:	03 00 00 cd 	sethi  %hi(0x33400), %g1
   11434:	d0 00 63 e0 	ld  [ %g1 + 0x3e0 ], %o0	! 337e0 <stderr@@GLIBC_2.0>
   11438:	13 00 00 86 	sethi  %hi(0x21800), %o1
   1143c:	92 12 60 78 	or  %o1, 0x78, %o1	! 21878 <_IO_stdin_used+0xc30>
   11440:	03 00 00 cd 	sethi  %hi(0x33400), %g1
   11444:	d4 00 63 f4 	ld  [ %g1 + 0x3f4 ], %o2	! 337f4 <progname>
   11448:	40 00 88 be 	call  33740 <fprintf@plt>
   1144c:	d6 04 23 f8 	ld  [ %l0 + 0x3f8 ], %o3
   11450:	40 00 88 cb 	call  3377c <exit@plt>
   11454:	90 10 20 01 	mov  1, %o0
   11458:	40 00 0c e9 	call  147fc <write_stdout>
   1145c:	01 00 00 00 	nop 
   11460:	a6 10 00 08 	mov  %o0, %l3
   11464:	a0 07 be 90 	add  %fp, -368, %l0
   11468:	90 10 00 10 	mov  %l0, %o0
   1146c:	7f ff fc d7 	call  107c8 <select_file_type>
   11470:	92 10 00 12 	mov  %l2, %o1
   11474:	a2 10 00 08 	mov  %o0, %l1
   11478:	e4 22 20 0c 	st  %l2, [ %o0 + 0xc ]
   1147c:	c2 02 00 00 	ld  [ %o0 ], %g1
   11480:	90 10 00 10 	mov  %l0, %o0
   11484:	9f c0 40 00 	call  %g1
   11488:	92 10 00 11 	mov  %l1, %o1
   1148c:	40 00 0f a4 	call  1531c <jpeg_default_colorspace>
   11490:	90 10 00 10 	mov  %l0, %o0
   11494:	90 10 00 10 	mov  %l0, %o0
   11498:	92 10 00 18 	mov  %i0, %o1
   1149c:	94 10 00 19 	mov  %i1, %o2
   114a0:	96 10 20 00 	clr  %o3
   114a4:	7f ff fd 9e 	call  10b1c <parse_switches>
   114a8:	98 10 20 01 	mov  1, %o4
   114ac:	90 10 00 10 	mov  %l0, %o0
   114b0:	40 00 11 ab 	call  15b5c <jpeg_stdio_dest>
   114b4:	92 10 00 13 	mov  %l3, %o1
   114b8:	90 10 00 10 	mov  %l0, %o0
   114bc:	40 00 0d e7 	call  14c58 <jpeg_start_compress>
   114c0:	92 10 20 01 	mov  1, %o1
   114c4:	c4 07 bf 68 	ld  [ %fp + -152 ], %g2
   114c8:	c2 07 be ac 	ld  [ %fp + -340 ], %g1
   114cc:	80 a0 80 01 	cmp  %g2, %g1
   114d0:	1a 80 00 0f 	bcc  1150c <main+0x234>
   114d4:	a0 07 be 90 	add  %fp, -368, %l0
   114d8:	c2 04 60 04 	ld  [ %l1 + 4 ], %g1
   114dc:	90 10 00 10 	mov  %l0, %o0
   114e0:	9f c0 40 00 	call  %g1
   114e4:	92 10 00 11 	mov  %l1, %o1
   114e8:	94 10 00 08 	mov  %o0, %o2
   114ec:	90 10 00 10 	mov  %l0, %o0
   114f0:	40 00 0e 04 	call  14d00 <jpeg_write_scanlines>
   114f4:	d2 04 60 10 	ld  [ %l1 + 0x10 ], %o1
   114f8:	c4 07 bf 68 	ld  [ %fp + -152 ], %g2
   114fc:	c2 07 be ac 	ld  [ %fp + -340 ], %g1
   11500:	80 a0 80 01 	cmp  %g2, %g1
   11504:	2a bf ff f6 	bcs,a   114dc <main+0x204>
   11508:	c2 04 60 04 	ld  [ %l1 + 4 ], %g1
   1150c:	a0 07 be 90 	add  %fp, -368, %l0
   11510:	c2 04 60 08 	ld  [ %l1 + 8 ], %g1
   11514:	90 10 00 10 	mov  %l0, %o0
   11518:	9f c0 40 00 	call  %g1
   1151c:	92 10 00 11 	mov  %l1, %o1
   11520:	40 00 0d 24 	call  149b0 <jpeg_finish_compress>
   11524:	90 10 00 10 	mov  %l0, %o0
   11528:	40 00 0c f8 	call  14908 <jpeg_destroy_compress>
   1152c:	90 10 00 10 	mov  %l0, %o0
   11530:	03 00 00 cd 	sethi  %hi(0x33400), %g1
   11534:	c2 00 63 e4 	ld  [ %g1 + 0x3e4 ], %g1	! 337e4 <stdin@@GLIBC_2.0>
   11538:	80 a4 80 01 	cmp  %l2, %g1
   1153c:	02 80 00 05 	be  11550 <main+0x278>
   11540:	03 00 00 cd 	sethi  %hi(0x33400), %g1
   11544:	40 00 88 8b 	call  33770 <fclose@plt>
   11548:	90 10 00 12 	mov  %l2, %o0
   1154c:	03 00 00 cd 	sethi  %hi(0x33400), %g1
   11550:	c2 00 63 dc 	ld  [ %g1 + 0x3dc ], %g1	! 337dc <__bss_start>
   11554:	80 a4 c0 01 	cmp  %l3, %g1
   11558:	02 80 00 05 	be  1156c <main+0x294>
   1155c:	c2 07 be 74 	ld  [ %fp + -396 ], %g1
   11560:	40 00 88 84 	call  33770 <fclose@plt>
   11564:	90 10 00 13 	mov  %l3, %o0
   11568:	c2 07 be 74 	ld  [ %fp + -396 ], %g1
   1156c:	80 a0 00 01 	cmp  %g0, %g1
   11570:	90 40 20 00 	addx  %g0, 0, %o0
   11574:	40 00 88 82 	call  3377c <exit@plt>
   11578:	90 02 00 08 	add  %o0, %o0, %o0
   1157c:	01 00 00 00 	nop 

00011580 <pbm_getc>:
   11580:	9d e3 bf 98 	save  %sp, -104, %sp
   11584:	40 00 88 8d 	call  337b8 <_IO_getc@plt>
   11588:	90 10 00 18 	mov  %i0, %o0
   1158c:	80 a2 20 23 	cmp  %o0, 0x23
   11590:	12 80 00 0d 	bne  115c4 <pbm_getc+0x44>
   11594:	01 00 00 00 	nop 
   11598:	40 00 88 88 	call  337b8 <_IO_getc@plt>
   1159c:	90 10 00 18 	mov  %i0, %o0
   115a0:	82 1a 20 0a 	xor  %o0, 0xa, %g1
   115a4:	80 a0 00 01 	cmp  %g0, %g1
   115a8:	84 40 20 00 	addx  %g0, 0, %g2
   115ac:	82 38 00 08 	xnor  %g0, %o0, %g1
   115b0:	80 a0 00 01 	cmp  %g0, %g1
   115b4:	82 40 20 00 	addx  %g0, 0, %g1
   115b8:	80 88 80 01 	btst  %g2, %g1
   115bc:	12 bf ff f7 	bne  11598 <pbm_getc+0x18>
   115c0:	01 00 00 00 	nop 
   115c4:	81 c7 e0 08 	ret 
   115c8:	91 e8 00 08 	restore  %g0, %o0, %o0

000115cc <read_pbm_integer>:
   115cc:	9d e3 bf 98 	save  %sp, -104, %sp
   115d0:	a2 10 20 2a 	mov  0x2a, %l1
   115d4:	7f ff ff eb 	call  11580 <pbm_getc>
   115d8:	90 10 00 19 	mov  %i1, %o0
   115dc:	80 a2 3f ff 	cmp  %o0, -1
   115e0:	12 80 00 08 	bne  11600 <read_pbm_integer+0x34>
   115e4:	a0 10 00 08 	mov  %o0, %l0
   115e8:	c2 06 00 00 	ld  [ %i0 ], %g1
   115ec:	e2 20 60 14 	st  %l1, [ %g1 + 0x14 ]
   115f0:	c2 06 00 00 	ld  [ %i0 ], %g1
   115f4:	c2 00 40 00 	ld  [ %g1 ], %g1
   115f8:	9f c0 40 00 	call  %g1
   115fc:	90 10 00 18 	mov  %i0, %o0
   11600:	82 1c 20 20 	xor  %l0, 0x20, %g1
   11604:	80 a0 00 01 	cmp  %g0, %g1
   11608:	84 60 3f ff 	subx  %g0, -1, %g2
   1160c:	82 1c 20 09 	xor  %l0, 9, %g1
   11610:	80 a0 00 01 	cmp  %g0, %g1
   11614:	82 60 3f ff 	subx  %g0, -1, %g1
   11618:	80 90 80 01 	orcc  %g2, %g1, %g0
   1161c:	12 bf ff ee 	bne  115d4 <read_pbm_integer+0x8>
   11620:	82 1c 20 0a 	xor  %l0, 0xa, %g1
   11624:	80 a0 00 01 	cmp  %g0, %g1
   11628:	84 60 3f ff 	subx  %g0, -1, %g2
   1162c:	82 1c 20 0d 	xor  %l0, 0xd, %g1
   11630:	80 a0 00 01 	cmp  %g0, %g1
   11634:	82 60 3f ff 	subx  %g0, -1, %g1
   11638:	80 90 80 01 	orcc  %g2, %g1, %g0
   1163c:	12 bf ff e6 	bne  115d4 <read_pbm_integer+0x8>
   11640:	82 04 3f d0 	add  %l0, -48, %g1
   11644:	80 a0 60 09 	cmp  %g1, 9
   11648:	28 80 00 0f 	bleu,a   11684 <read_pbm_integer+0xb8>
   1164c:	b0 04 3f d0 	add  %l0, -48, %i0
   11650:	c4 06 00 00 	ld  [ %i0 ], %g2
   11654:	82 10 24 02 	mov  0x402, %g1
   11658:	c2 20 a0 14 	st  %g1, [ %g2 + 0x14 ]
   1165c:	c2 06 00 00 	ld  [ %i0 ], %g1
   11660:	c2 00 40 00 	ld  [ %g1 ], %g1
   11664:	9f c0 40 00 	call  %g1
   11668:	90 10 00 18 	mov  %i0, %o0
   1166c:	10 80 00 06 	b  11684 <read_pbm_integer+0xb8>
   11670:	b0 04 3f d0 	add  %l0, -48, %i0
   11674:	82 00 40 18 	add  %g1, %i0, %g1
   11678:	b0 00 40 01 	add  %g1, %g1, %i0
   1167c:	82 04 00 18 	add  %l0, %i0, %g1
   11680:	b0 00 7f d0 	add  %g1, -48, %i0
   11684:	7f ff ff bf 	call  11580 <pbm_getc>
   11688:	90 10 00 19 	mov  %i1, %o0
   1168c:	80 a2 20 2f 	cmp  %o0, 0x2f
   11690:	04 80 00 05 	ble  116a4 <read_pbm_integer+0xd8>
   11694:	a0 10 00 08 	mov  %o0, %l0
   11698:	80 a2 20 39 	cmp  %o0, 0x39
   1169c:	04 bf ff f6 	ble  11674 <read_pbm_integer+0xa8>
   116a0:	83 2e 20 02 	sll  %i0, 2, %g1
   116a4:	81 c7 e0 08 	ret 
   116a8:	81 e8 00 00 	restore 

000116ac <get_text_gray_row>:
   116ac:	9d e3 bf 98 	save  %sp, -104, %sp
   116b0:	e6 06 60 0c 	ld  [ %i1 + 0xc ], %l3
   116b4:	e4 06 60 24 	ld  [ %i1 + 0x24 ], %l2
   116b8:	c2 06 60 10 	ld  [ %i1 + 0x10 ], %g1
   116bc:	f2 06 20 18 	ld  [ %i0 + 0x18 ], %i1
   116c0:	80 a6 60 00 	cmp  %i1, 0
   116c4:	02 80 00 0b 	be  116f0 <get_text_gray_row+0x44>
   116c8:	e2 00 40 00 	ld  [ %g1 ], %l1
   116cc:	a0 10 00 11 	mov  %l1, %l0
   116d0:	a2 04 60 01 	inc  %l1
   116d4:	90 10 00 18 	mov  %i0, %o0
   116d8:	7f ff ff bd 	call  115cc <read_pbm_integer>
   116dc:	92 10 00 13 	mov  %l3, %o1
   116e0:	c2 0a 00 12 	ldub  [ %o0 + %l2 ], %g1
   116e4:	b2 86 7f ff 	addcc  %i1, -1, %i1
   116e8:	12 bf ff f9 	bne  116cc <get_text_gray_row+0x20>
   116ec:	c2 2c 00 00 	stb  %g1, [ %l0 ]
   116f0:	81 c7 e0 08 	ret 
   116f4:	91 e8 20 01 	restore  %g0, 1, %o0

000116f8 <get_text_rgb_row>:
   116f8:	9d e3 bf 98 	save  %sp, -104, %sp
   116fc:	e6 06 60 0c 	ld  [ %i1 + 0xc ], %l3
   11700:	e4 06 60 24 	ld  [ %i1 + 0x24 ], %l2
   11704:	c2 06 60 10 	ld  [ %i1 + 0x10 ], %g1
   11708:	e2 06 20 18 	ld  [ %i0 + 0x18 ], %l1
   1170c:	80 a4 60 00 	cmp  %l1, 0
   11710:	02 80 00 19 	be  11774 <get_text_rgb_row+0x7c>
   11714:	f2 00 40 00 	ld  [ %g1 ], %i1
   11718:	a0 10 00 19 	mov  %i1, %l0
   1171c:	b2 06 60 01 	inc  %i1
   11720:	90 10 00 18 	mov  %i0, %o0
   11724:	7f ff ff aa 	call  115cc <read_pbm_integer>
   11728:	92 10 00 13 	mov  %l3, %o1
   1172c:	c2 0a 00 12 	ldub  [ %o0 + %l2 ], %g1
   11730:	c2 2c 00 00 	stb  %g1, [ %l0 ]
   11734:	a0 10 00 19 	mov  %i1, %l0
   11738:	b2 06 60 01 	inc  %i1
   1173c:	90 10 00 18 	mov  %i0, %o0
   11740:	7f ff ff a3 	call  115cc <read_pbm_integer>
   11744:	92 10 00 13 	mov  %l3, %o1
   11748:	c2 0a 00 12 	ldub  [ %o0 + %l2 ], %g1
   1174c:	c2 2c 00 00 	stb  %g1, [ %l0 ]
   11750:	a0 10 00 19 	mov  %i1, %l0
   11754:	b2 06 60 01 	inc  %i1
   11758:	90 10 00 18 	mov  %i0, %o0
   1175c:	7f ff ff 9c 	call  115cc <read_pbm_integer>
   11760:	92 10 00 13 	mov  %l3, %o1
   11764:	c2 0a 00 12 	ldub  [ %o0 + %l2 ], %g1
   11768:	a2 84 7f ff 	addcc  %l1, -1, %l1
   1176c:	12 bf ff eb 	bne  11718 <get_text_rgb_row+0x20>
   11770:	c2 2c 00 00 	stb  %g1, [ %l0 ]
   11774:	81 c7 e0 08 	ret 
   11778:	91 e8 20 01 	restore  %g0, 1, %o0

0001177c <get_scaled_gray_row>:
   1177c:	9d e3 bf 98 	save  %sp, -104, %sp
   11780:	e0 06 60 24 	ld  [ %i1 + 0x24 ], %l0
   11784:	d0 06 60 18 	ld  [ %i1 + 0x18 ], %o0
   11788:	92 10 20 01 	mov  1, %o1
   1178c:	d4 06 60 20 	ld  [ %i1 + 0x20 ], %o2
   11790:	40 00 87 e6 	call  33728 <fread@plt>
   11794:	d6 06 60 0c 	ld  [ %i1 + 0xc ], %o3
   11798:	c2 06 60 20 	ld  [ %i1 + 0x20 ], %g1
   1179c:	80 a2 00 01 	cmp  %o0, %g1
   117a0:	02 80 00 08 	be  117c0 <get_scaled_gray_row+0x44>
   117a4:	82 10 20 2a 	mov  0x2a, %g1
   117a8:	c4 06 00 00 	ld  [ %i0 ], %g2
   117ac:	c2 20 a0 14 	st  %g1, [ %g2 + 0x14 ]
   117b0:	c2 06 00 00 	ld  [ %i0 ], %g1
   117b4:	c2 00 40 00 	ld  [ %g1 ], %g1
   117b8:	9f c0 40 00 	call  %g1
   117bc:	90 10 00 18 	mov  %i0, %o0
   117c0:	c2 06 60 10 	ld  [ %i1 + 0x10 ], %g1
   117c4:	c6 00 40 00 	ld  [ %g1 ], %g3
   117c8:	c4 06 20 18 	ld  [ %i0 + 0x18 ], %g2
   117cc:	80 a0 a0 00 	cmp  %g2, 0
   117d0:	02 80 00 09 	be  117f4 <get_scaled_gray_row+0x78>
   117d4:	f2 06 60 18 	ld  [ %i1 + 0x18 ], %i1
   117d8:	c2 0e 40 00 	ldub  [ %i1 ], %g1
   117dc:	b2 06 60 01 	inc  %i1
   117e0:	c2 08 40 10 	ldub  [ %g1 + %l0 ], %g1
   117e4:	c2 28 c0 00 	stb  %g1, [ %g3 ]
   117e8:	84 80 bf ff 	addcc  %g2, -1, %g2
   117ec:	12 bf ff fb 	bne  117d8 <get_scaled_gray_row+0x5c>
   117f0:	86 00 e0 01 	inc  %g3
   117f4:	81 c7 e0 08 	ret 
   117f8:	91 e8 20 01 	restore  %g0, 1, %o0

000117fc <get_scaled_rgb_row>:
   117fc:	9d e3 bf 98 	save  %sp, -104, %sp
   11800:	e0 06 60 24 	ld  [ %i1 + 0x24 ], %l0
   11804:	d0 06 60 18 	ld  [ %i1 + 0x18 ], %o0
   11808:	92 10 20 01 	mov  1, %o1
   1180c:	d4 06 60 20 	ld  [ %i1 + 0x20 ], %o2
   11810:	40 00 87 c6 	call  33728 <fread@plt>
   11814:	d6 06 60 0c 	ld  [ %i1 + 0xc ], %o3
   11818:	c2 06 60 20 	ld  [ %i1 + 0x20 ], %g1
   1181c:	80 a2 00 01 	cmp  %o0, %g1
   11820:	02 80 00 08 	be  11840 <get_scaled_rgb_row+0x44>
   11824:	82 10 20 2a 	mov  0x2a, %g1
   11828:	c4 06 00 00 	ld  [ %i0 ], %g2
   1182c:	c2 20 a0 14 	st  %g1, [ %g2 + 0x14 ]
   11830:	c2 06 00 00 	ld  [ %i0 ], %g1
   11834:	c2 00 40 00 	ld  [ %g1 ], %g1
   11838:	9f c0 40 00 	call  %g1
   1183c:	90 10 00 18 	mov  %i0, %o0
   11840:	c2 06 60 10 	ld  [ %i1 + 0x10 ], %g1
   11844:	c6 00 40 00 	ld  [ %g1 ], %g3
   11848:	c4 06 20 18 	ld  [ %i0 + 0x18 ], %g2
   1184c:	80 a0 a0 00 	cmp  %g2, 0
   11850:	02 80 00 13 	be  1189c <get_scaled_rgb_row+0xa0>
   11854:	f2 06 60 18 	ld  [ %i1 + 0x18 ], %i1
   11858:	c2 0e 40 00 	ldub  [ %i1 ], %g1
   1185c:	b2 06 60 01 	inc  %i1
   11860:	c2 08 40 10 	ldub  [ %g1 + %l0 ], %g1
   11864:	c2 28 c0 00 	stb  %g1, [ %g3 ]
   11868:	86 00 e0 01 	inc  %g3
   1186c:	c2 0e 40 00 	ldub  [ %i1 ], %g1
   11870:	b2 06 60 01 	inc  %i1
   11874:	c2 08 40 10 	ldub  [ %g1 + %l0 ], %g1
   11878:	c2 28 c0 00 	stb  %g1, [ %g3 ]
   1187c:	86 00 e0 01 	inc  %g3
   11880:	c2 0e 40 00 	ldub  [ %i1 ], %g1
   11884:	b2 06 60 01 	inc  %i1
   11888:	c2 08 40 10 	ldub  [ %g1 + %l0 ], %g1
   1188c:	c2 28 c0 00 	stb  %g1, [ %g3 ]
   11890:	84 80 bf ff 	addcc  %g2, -1, %g2
   11894:	12 bf ff f1 	bne  11858 <get_scaled_rgb_row+0x5c>
   11898:	86 00 e0 01 	inc  %g3
   1189c:	81 c7 e0 08 	ret 
   118a0:	91 e8 20 01 	restore  %g0, 1, %o0

000118a4 <get_raw_row>:
   118a4:	9d e3 bf 98 	save  %sp, -104, %sp
   118a8:	d0 06 60 18 	ld  [ %i1 + 0x18 ], %o0
   118ac:	92 10 20 01 	mov  1, %o1
   118b0:	d4 06 60 20 	ld  [ %i1 + 0x20 ], %o2
   118b4:	40 00 87 9d 	call  33728 <fread@plt>
   118b8:	d6 06 60 0c 	ld  [ %i1 + 0xc ], %o3
   118bc:	c2 06 60 20 	ld  [ %i1 + 0x20 ], %g1
   118c0:	80 a2 00 01 	cmp  %o0, %g1
   118c4:	02 80 00 08 	be  118e4 <get_raw_row+0x40>
   118c8:	82 10 20 2a 	mov  0x2a, %g1
   118cc:	c4 06 00 00 	ld  [ %i0 ], %g2
   118d0:	c2 20 a0 14 	st  %g1, [ %g2 + 0x14 ]
   118d4:	c2 06 00 00 	ld  [ %i0 ], %g1
   118d8:	c2 00 40 00 	ld  [ %g1 ], %g1
   118dc:	9f c0 40 00 	call  %g1
   118e0:	90 10 00 18 	mov  %i0, %o0
   118e4:	81 c7 e0 08 	ret 
   118e8:	91 e8 20 01 	restore  %g0, 1, %o0

000118ec <get_word_gray_row>:
   118ec:	9d e3 bf 98 	save  %sp, -104, %sp
   118f0:	e0 06 60 24 	ld  [ %i1 + 0x24 ], %l0
   118f4:	d0 06 60 18 	ld  [ %i1 + 0x18 ], %o0
   118f8:	92 10 20 01 	mov  1, %o1
   118fc:	d4 06 60 20 	ld  [ %i1 + 0x20 ], %o2
   11900:	40 00 87 8a 	call  33728 <fread@plt>
   11904:	d6 06 60 0c 	ld  [ %i1 + 0xc ], %o3
   11908:	c2 06 60 20 	ld  [ %i1 + 0x20 ], %g1
   1190c:	80 a2 00 01 	cmp  %o0, %g1
   11910:	02 80 00 08 	be  11930 <get_word_gray_row+0x44>
   11914:	82 10 20 2a 	mov  0x2a, %g1
   11918:	c4 06 00 00 	ld  [ %i0 ], %g2
   1191c:	c2 20 a0 14 	st  %g1, [ %g2 + 0x14 ]
   11920:	c2 06 00 00 	ld  [ %i0 ], %g1
   11924:	c2 00 40 00 	ld  [ %g1 ], %g1
   11928:	9f c0 40 00 	call  %g1
   1192c:	90 10 00 18 	mov  %i0, %o0
   11930:	c2 06 60 10 	ld  [ %i1 + 0x10 ], %g1
   11934:	c6 00 40 00 	ld  [ %g1 ], %g3
   11938:	d0 06 20 18 	ld  [ %i0 + 0x18 ], %o0
   1193c:	80 a2 20 00 	cmp  %o0, 0
   11940:	02 80 00 0d 	be  11974 <get_word_gray_row+0x88>
   11944:	f2 06 60 18 	ld  [ %i1 + 0x18 ], %i1
   11948:	c2 0e 40 00 	ldub  [ %i1 ], %g1
   1194c:	b2 06 60 01 	inc  %i1
   11950:	c4 0e 40 00 	ldub  [ %i1 ], %g2
   11954:	85 28 a0 08 	sll  %g2, 8, %g2
   11958:	82 10 40 02 	or  %g1, %g2, %g1
   1195c:	b2 06 60 01 	inc  %i1
   11960:	c2 0c 00 01 	ldub  [ %l0 + %g1 ], %g1
   11964:	c2 28 c0 00 	stb  %g1, [ %g3 ]
   11968:	90 82 3f ff 	addcc  %o0, -1, %o0
   1196c:	12 bf ff f7 	bne  11948 <get_word_gray_row+0x5c>
   11970:	86 00 e0 01 	inc  %g3
   11974:	81 c7 e0 08 	ret 
   11978:	91 e8 20 01 	restore  %g0, 1, %o0

0001197c <get_word_rgb_row>:
   1197c:	9d e3 bf 98 	save  %sp, -104, %sp
   11980:	e0 06 60 24 	ld  [ %i1 + 0x24 ], %l0
   11984:	d0 06 60 18 	ld  [ %i1 + 0x18 ], %o0
   11988:	92 10 20 01 	mov  1, %o1
   1198c:	d4 06 60 20 	ld  [ %i1 + 0x20 ], %o2
   11990:	40 00 87 66 	call  33728 <fread@plt>
   11994:	d6 06 60 0c 	ld  [ %i1 + 0xc ], %o3
   11998:	c2 06 60 20 	ld  [ %i1 + 0x20 ], %g1
   1199c:	80 a2 00 01 	cmp  %o0, %g1
   119a0:	02 80 00 08 	be  119c0 <get_word_rgb_row+0x44>
   119a4:	82 10 20 2a 	mov  0x2a, %g1
   119a8:	c4 06 00 00 	ld  [ %i0 ], %g2
   119ac:	c2 20 a0 14 	st  %g1, [ %g2 + 0x14 ]
   119b0:	c2 06 00 00 	ld  [ %i0 ], %g1
   119b4:	c2 00 40 00 	ld  [ %g1 ], %g1
   119b8:	9f c0 40 00 	call  %g1
   119bc:	90 10 00 18 	mov  %i0, %o0
   119c0:	c2 06 60 10 	ld  [ %i1 + 0x10 ], %g1
   119c4:	c8 00 40 00 	ld  [ %g1 ], %g4
   119c8:	c4 06 20 18 	ld  [ %i0 + 0x18 ], %g2
   119cc:	80 a0 a0 00 	cmp  %g2, 0
   119d0:	02 80 00 1f 	be  11a4c <get_word_rgb_row+0xd0>
   119d4:	f2 06 60 18 	ld  [ %i1 + 0x18 ], %i1
   119d8:	c6 0e 40 00 	ldub  [ %i1 ], %g3
   119dc:	b2 06 60 01 	inc  %i1
   119e0:	c2 0e 40 00 	ldub  [ %i1 ], %g1
   119e4:	83 28 60 08 	sll  %g1, 8, %g1
   119e8:	86 10 c0 01 	or  %g3, %g1, %g3
   119ec:	b2 06 60 01 	inc  %i1
   119f0:	c2 0c 00 03 	ldub  [ %l0 + %g3 ], %g1
   119f4:	c2 29 00 00 	stb  %g1, [ %g4 ]
   119f8:	88 01 20 01 	inc  %g4
   119fc:	c6 0e 40 00 	ldub  [ %i1 ], %g3
   11a00:	b2 06 60 01 	inc  %i1
   11a04:	c2 0e 40 00 	ldub  [ %i1 ], %g1
   11a08:	83 28 60 08 	sll  %g1, 8, %g1
   11a0c:	86 10 c0 01 	or  %g3, %g1, %g3
   11a10:	b2 06 60 01 	inc  %i1
   11a14:	c2 0c 00 03 	ldub  [ %l0 + %g3 ], %g1
   11a18:	c2 29 00 00 	stb  %g1, [ %g4 ]
   11a1c:	88 01 20 01 	inc  %g4
   11a20:	c6 0e 40 00 	ldub  [ %i1 ], %g3
   11a24:	b2 06 60 01 	inc  %i1
   11a28:	c2 0e 40 00 	ldub  [ %i1 ], %g1
   11a2c:	83 28 60 08 	sll  %g1, 8, %g1
   11a30:	86 10 c0 01 	or  %g3, %g1, %g3
   11a34:	b2 06 60 01 	inc  %i1
   11a38:	c2 0c 00 03 	ldub  [ %l0 + %g3 ], %g1
   11a3c:	c2 29 00 00 	stb  %g1, [ %g4 ]
   11a40:	84 80 bf ff 	addcc  %g2, -1, %g2
   11a44:	12 bf ff e5 	bne  119d8 <get_word_rgb_row+0x5c>
   11a48:	88 01 20 01 	inc  %g4
   11a4c:	81 c7 e0 08 	ret 
   11a50:	91 e8 20 01 	restore  %g0, 1, %o0

00011a54 <start_input_ppm>:
   11a54:	9d e3 bf 98 	save  %sp, -104, %sp
   11a58:	40 00 87 58 	call  337b8 <_IO_getc@plt>
   11a5c:	d0 06 60 0c 	ld  [ %i1 + 0xc ], %o0
   11a60:	80 a2 20 50 	cmp  %o0, 0x50
   11a64:	02 80 00 08 	be  11a84 <start_input_ppm+0x30>
   11a68:	82 10 24 03 	mov  0x403, %g1
   11a6c:	c4 06 00 00 	ld  [ %i0 ], %g2
   11a70:	c2 20 a0 14 	st  %g1, [ %g2 + 0x14 ]
   11a74:	c2 06 00 00 	ld  [ %i0 ], %g1
   11a78:	c2 00 40 00 	ld  [ %g1 ], %g1
   11a7c:	9f c0 40 00 	call  %g1
   11a80:	90 10 00 18 	mov  %i0, %o0
   11a84:	40 00 87 4d 	call  337b8 <_IO_getc@plt>
   11a88:	d0 06 60 0c 	ld  [ %i1 + 0xc ], %o0
   11a8c:	a0 10 00 08 	mov  %o0, %l0
   11a90:	90 10 00 18 	mov  %i0, %o0
   11a94:	7f ff fe ce 	call  115cc <read_pbm_integer>
   11a98:	d2 06 60 0c 	ld  [ %i1 + 0xc ], %o1
   11a9c:	a6 10 00 08 	mov  %o0, %l3
   11aa0:	90 10 00 18 	mov  %i0, %o0
   11aa4:	7f ff fe ca 	call  115cc <read_pbm_integer>
   11aa8:	d2 06 60 0c 	ld  [ %i1 + 0xc ], %o1
   11aac:	a4 10 00 08 	mov  %o0, %l2
   11ab0:	90 10 00 18 	mov  %i0, %o0
   11ab4:	7f ff fe c6 	call  115cc <read_pbm_integer>
   11ab8:	d2 06 60 0c 	ld  [ %i1 + 0xc ], %o1
   11abc:	80 a0 00 13 	cmp  %g0, %l3
   11ac0:	84 60 3f ff 	subx  %g0, -1, %g2
   11ac4:	80 a0 00 12 	cmp  %g0, %l2
   11ac8:	82 60 3f ff 	subx  %g0, -1, %g1
   11acc:	80 90 80 01 	orcc  %g2, %g1, %g0
   11ad0:	12 80 00 05 	bne  11ae4 <start_input_ppm+0x90>
   11ad4:	a2 10 00 08 	mov  %o0, %l1
   11ad8:	80 a2 20 00 	cmp  %o0, 0
   11adc:	12 80 00 0a 	bne  11b04 <start_input_ppm+0xb0>
   11ae0:	82 10 20 08 	mov  8, %g1
   11ae4:	c4 06 00 00 	ld  [ %i0 ], %g2
   11ae8:	82 10 24 03 	mov  0x403, %g1
   11aec:	c2 20 a0 14 	st  %g1, [ %g2 + 0x14 ]
   11af0:	c2 06 00 00 	ld  [ %i0 ], %g1
   11af4:	c2 00 40 00 	ld  [ %g1 ], %g1
   11af8:	9f c0 40 00 	call  %g1
   11afc:	90 10 00 18 	mov  %i0, %o0
   11b00:	82 10 20 08 	mov  8, %g1
   11b04:	c2 26 20 30 	st  %g1, [ %i0 + 0x30 ]
   11b08:	e6 26 20 18 	st  %l3, [ %i0 + 0x18 ]
   11b0c:	e4 26 20 1c 	st  %l2, [ %i0 + 0x1c ]
   11b10:	a8 10 20 01 	mov  1, %l4
   11b14:	aa 10 20 00 	clr  %l5
   11b18:	80 a4 20 33 	cmp  %l0, 0x33
   11b1c:	02 80 00 23 	be  11ba8 <start_input_ppm+0x154>
   11b20:	ac 10 20 01 	mov  1, %l6
   11b24:	80 a4 20 33 	cmp  %l0, 0x33
   11b28:	14 80 00 07 	bg  11b44 <start_input_ppm+0xf0>
   11b2c:	80 a4 20 35 	cmp  %l0, 0x35
   11b30:	80 a4 20 32 	cmp  %l0, 0x32
   11b34:	02 80 00 0a 	be  11b5c <start_input_ppm+0x108>
   11b38:	82 10 20 01 	mov  1, %g1
   11b3c:	10 80 00 70 	b  11cfc <start_input_ppm+0x2a8>
   11b40:	c4 06 00 00 	ld  [ %i0 ], %g2
   11b44:	02 80 00 2e 	be  11bfc <start_input_ppm+0x1a8>
   11b48:	80 a4 20 36 	cmp  %l0, 0x36
   11b4c:	02 80 00 4c 	be  11c7c <start_input_ppm+0x228>
   11b50:	82 10 20 03 	mov  3, %g1
   11b54:	10 80 00 6a 	b  11cfc <start_input_ppm+0x2a8>
   11b58:	c4 06 00 00 	ld  [ %i0 ], %g2
   11b5c:	c2 26 20 20 	st  %g1, [ %i0 + 0x20 ]
   11b60:	c2 26 20 24 	st  %g1, [ %i0 + 0x24 ]
   11b64:	c4 06 00 00 	ld  [ %i0 ], %g2
   11b68:	82 10 24 05 	mov  0x405, %g1
   11b6c:	c2 20 a0 14 	st  %g1, [ %g2 + 0x14 ]
   11b70:	c2 06 00 00 	ld  [ %i0 ], %g1
   11b74:	e6 20 60 18 	st  %l3, [ %g1 + 0x18 ]
   11b78:	c2 06 00 00 	ld  [ %i0 ], %g1
   11b7c:	e4 20 60 1c 	st  %l2, [ %g1 + 0x1c ]
   11b80:	c2 06 00 00 	ld  [ %i0 ], %g1
   11b84:	c2 00 60 04 	ld  [ %g1 + 4 ], %g1
   11b88:	90 10 00 18 	mov  %i0, %o0
   11b8c:	9f c0 40 00 	call  %g1
   11b90:	92 10 20 01 	mov  1, %o1
   11b94:	03 00 00 45 	sethi  %hi(0x11400), %g1
   11b98:	82 10 62 ac 	or  %g1, 0x2ac, %g1	! 116ac <get_text_gray_row>
   11b9c:	c2 26 60 04 	st  %g1, [ %i1 + 4 ]
   11ba0:	10 80 00 5d 	b  11d14 <start_input_ppm+0x2c0>
   11ba4:	a8 10 20 00 	clr  %l4
   11ba8:	82 10 20 03 	mov  3, %g1
   11bac:	c2 26 20 20 	st  %g1, [ %i0 + 0x20 ]
   11bb0:	82 10 20 02 	mov  2, %g1
   11bb4:	c2 26 20 24 	st  %g1, [ %i0 + 0x24 ]
   11bb8:	c4 06 00 00 	ld  [ %i0 ], %g2
   11bbc:	82 10 24 07 	mov  0x407, %g1
   11bc0:	c2 20 a0 14 	st  %g1, [ %g2 + 0x14 ]
   11bc4:	c2 06 00 00 	ld  [ %i0 ], %g1
   11bc8:	e6 20 60 18 	st  %l3, [ %g1 + 0x18 ]
   11bcc:	c2 06 00 00 	ld  [ %i0 ], %g1
   11bd0:	e4 20 60 1c 	st  %l2, [ %g1 + 0x1c ]
   11bd4:	c2 06 00 00 	ld  [ %i0 ], %g1
   11bd8:	c2 00 60 04 	ld  [ %g1 + 4 ], %g1
   11bdc:	90 10 00 18 	mov  %i0, %o0
   11be0:	9f c0 40 00 	call  %g1
   11be4:	92 10 20 01 	mov  1, %o1
   11be8:	03 00 00 45 	sethi  %hi(0x11400), %g1
   11bec:	82 10 62 f8 	or  %g1, 0x2f8, %g1	! 116f8 <get_text_rgb_row>
   11bf0:	c2 26 60 04 	st  %g1, [ %i1 + 4 ]
   11bf4:	10 80 00 48 	b  11d14 <start_input_ppm+0x2c0>
   11bf8:	a8 10 20 00 	clr  %l4
   11bfc:	82 10 20 01 	mov  1, %g1
   11c00:	c2 26 20 20 	st  %g1, [ %i0 + 0x20 ]
   11c04:	c2 26 20 24 	st  %g1, [ %i0 + 0x24 ]
   11c08:	c4 06 00 00 	ld  [ %i0 ], %g2
   11c0c:	82 10 24 04 	mov  0x404, %g1
   11c10:	c2 20 a0 14 	st  %g1, [ %g2 + 0x14 ]
   11c14:	c2 06 00 00 	ld  [ %i0 ], %g1
   11c18:	e6 20 60 18 	st  %l3, [ %g1 + 0x18 ]
   11c1c:	c2 06 00 00 	ld  [ %i0 ], %g1
   11c20:	e4 20 60 1c 	st  %l2, [ %g1 + 0x1c ]
   11c24:	c2 06 00 00 	ld  [ %i0 ], %g1
   11c28:	c2 00 60 04 	ld  [ %g1 + 4 ], %g1
   11c2c:	90 10 00 18 	mov  %i0, %o0
   11c30:	9f c0 40 00 	call  %g1
   11c34:	92 10 20 01 	mov  1, %o1
   11c38:	80 a4 60 ff 	cmp  %l1, 0xff
   11c3c:	08 80 00 05 	bleu  11c50 <start_input_ppm+0x1fc>
   11c40:	03 00 00 46 	sethi  %hi(0x11800), %g1
   11c44:	82 10 60 ec 	or  %g1, 0xec, %g1	! 118ec <get_word_gray_row>
   11c48:	10 80 00 33 	b  11d14 <start_input_ppm+0x2c0>
   11c4c:	c2 26 60 04 	st  %g1, [ %i1 + 4 ]
   11c50:	12 80 00 08 	bne  11c70 <start_input_ppm+0x21c>
   11c54:	03 00 00 45 	sethi  %hi(0x11400), %g1
   11c58:	03 00 00 46 	sethi  %hi(0x11800), %g1
   11c5c:	82 10 60 a4 	or  %g1, 0xa4, %g1	! 118a4 <get_raw_row>
   11c60:	c2 26 60 04 	st  %g1, [ %i1 + 4 ]
   11c64:	aa 10 20 01 	mov  1, %l5
   11c68:	10 80 00 2b 	b  11d14 <start_input_ppm+0x2c0>
   11c6c:	ac 10 20 00 	clr  %l6
   11c70:	82 10 63 7c 	or  %g1, 0x37c, %g1
   11c74:	10 80 00 28 	b  11d14 <start_input_ppm+0x2c0>
   11c78:	c2 26 60 04 	st  %g1, [ %i1 + 4 ]
   11c7c:	c2 26 20 20 	st  %g1, [ %i0 + 0x20 ]
   11c80:	82 10 20 02 	mov  2, %g1
   11c84:	c2 26 20 24 	st  %g1, [ %i0 + 0x24 ]
   11c88:	c4 06 00 00 	ld  [ %i0 ], %g2
   11c8c:	82 10 24 06 	mov  0x406, %g1
   11c90:	c2 20 a0 14 	st  %g1, [ %g2 + 0x14 ]
   11c94:	c2 06 00 00 	ld  [ %i0 ], %g1
   11c98:	e6 20 60 18 	st  %l3, [ %g1 + 0x18 ]
   11c9c:	c2 06 00 00 	ld  [ %i0 ], %g1
   11ca0:	e4 20 60 1c 	st  %l2, [ %g1 + 0x1c ]
   11ca4:	c2 06 00 00 	ld  [ %i0 ], %g1
   11ca8:	c2 00 60 04 	ld  [ %g1 + 4 ], %g1
   11cac:	90 10 00 18 	mov  %i0, %o0
   11cb0:	9f c0 40 00 	call  %g1
   11cb4:	92 10 20 01 	mov  1, %o1
   11cb8:	80 a4 60 ff 	cmp  %l1, 0xff
   11cbc:	08 80 00 05 	bleu  11cd0 <start_input_ppm+0x27c>
   11cc0:	03 00 00 46 	sethi  %hi(0x11800), %g1
   11cc4:	82 10 61 7c 	or  %g1, 0x17c, %g1	! 1197c <get_word_rgb_row>
   11cc8:	10 80 00 13 	b  11d14 <start_input_ppm+0x2c0>
   11ccc:	c2 26 60 04 	st  %g1, [ %i1 + 4 ]
   11cd0:	12 80 00 08 	bne  11cf0 <start_input_ppm+0x29c>
   11cd4:	03 00 00 45 	sethi  %hi(0x11400), %g1
   11cd8:	03 00 00 46 	sethi  %hi(0x11800), %g1
   11cdc:	82 10 60 a4 	or  %g1, 0xa4, %g1	! 118a4 <get_raw_row>
   11ce0:	c2 26 60 04 	st  %g1, [ %i1 + 4 ]
   11ce4:	aa 10 20 01 	mov  1, %l5
   11ce8:	10 80 00 0b 	b  11d14 <start_input_ppm+0x2c0>
   11cec:	ac 10 20 00 	clr  %l6
   11cf0:	82 10 63 fc 	or  %g1, 0x3fc, %g1
   11cf4:	10 80 00 08 	b  11d14 <start_input_ppm+0x2c0>
   11cf8:	c2 26 60 04 	st  %g1, [ %i1 + 4 ]
   11cfc:	82 10 24 03 	mov  0x403, %g1
   11d00:	c2 20 a0 14 	st  %g1, [ %g2 + 0x14 ]
   11d04:	c2 06 00 00 	ld  [ %i0 ], %g1
   11d08:	c2 00 40 00 	ld  [ %g1 ], %g1
   11d0c:	9f c0 40 00 	call  %g1
   11d10:	90 10 00 18 	mov  %i0, %o0
   11d14:	80 a5 20 00 	cmp  %l4, 0
   11d18:	02 80 00 0f 	be  11d54 <start_input_ppm+0x300>
   11d1c:	80 a5 60 00 	cmp  %l5, 0
   11d20:	c2 06 20 20 	ld  [ %i0 + 0x20 ], %g1
   11d24:	80 a4 60 ff 	cmp  %l1, 0xff
   11d28:	08 80 00 03 	bleu  11d34 <start_input_ppm+0x2e0>
   11d2c:	94 5c c0 01 	smul  %l3, %g1, %o2
   11d30:	94 02 80 0a 	add  %o2, %o2, %o2
   11d34:	d4 26 60 20 	st  %o2, [ %i1 + 0x20 ]
   11d38:	c2 06 20 04 	ld  [ %i0 + 4 ], %g1
   11d3c:	c2 00 40 00 	ld  [ %g1 ], %g1
   11d40:	90 10 00 18 	mov  %i0, %o0
   11d44:	9f c0 40 00 	call  %g1
   11d48:	92 10 20 01 	mov  1, %o1
   11d4c:	d0 26 60 18 	st  %o0, [ %i1 + 0x18 ]
   11d50:	80 a5 60 00 	cmp  %l5, 0
   11d54:	22 80 00 09 	be,a   11d78 <start_input_ppm+0x324>
   11d58:	c2 06 20 04 	ld  [ %i0 + 4 ], %g1
   11d5c:	c2 06 60 18 	ld  [ %i1 + 0x18 ], %g1
   11d60:	c2 26 60 1c 	st  %g1, [ %i1 + 0x1c ]
   11d64:	82 06 60 1c 	add  %i1, 0x1c, %g1
   11d68:	c2 26 60 10 	st  %g1, [ %i1 + 0x10 ]
   11d6c:	82 10 20 01 	mov  1, %g1
   11d70:	10 80 00 0c 	b  11da0 <start_input_ppm+0x34c>
   11d74:	c2 26 60 14 	st  %g1, [ %i1 + 0x14 ]
   11d78:	d4 06 20 20 	ld  [ %i0 + 0x20 ], %o2
   11d7c:	c2 00 60 08 	ld  [ %g1 + 8 ], %g1
   11d80:	90 10 00 18 	mov  %i0, %o0
   11d84:	92 10 20 01 	mov  1, %o1
   11d88:	94 5c c0 0a 	smul  %l3, %o2, %o2
   11d8c:	9f c0 40 00 	call  %g1
   11d90:	96 10 20 01 	mov  1, %o3
   11d94:	d0 26 60 10 	st  %o0, [ %i1 + 0x10 ]
   11d98:	82 10 20 01 	mov  1, %g1
   11d9c:	c2 26 60 14 	st  %g1, [ %i1 + 0x14 ]
   11da0:	80 a5 a0 00 	cmp  %l6, 0
   11da4:	02 80 00 1a 	be  11e0c <start_input_ppm+0x3b8>
   11da8:	90 10 00 18 	mov  %i0, %o0
   11dac:	c2 06 20 04 	ld  [ %i0 + 4 ], %g1
   11db0:	c2 00 40 00 	ld  [ %g1 ], %g1
   11db4:	92 10 20 01 	mov  1, %o1
   11db8:	9f c0 40 00 	call  %g1
   11dbc:	94 04 60 01 	add  %l1, 1, %o2
   11dc0:	d0 26 60 24 	st  %o0, [ %i1 + 0x24 ]
   11dc4:	89 34 60 01 	srl  %l1, 1, %g4
   11dc8:	80 a4 60 00 	cmp  %l1, 0
   11dcc:	06 80 00 10 	bl  11e0c <start_input_ppm+0x3b8>
   11dd0:	86 10 20 00 	clr  %g3
   11dd4:	c4 06 60 24 	ld  [ %i1 + 0x24 ], %g2
   11dd8:	83 28 e0 08 	sll  %g3, 8, %g1
   11ddc:	82 20 40 03 	sub  %g1, %g3, %g1
   11de0:	82 00 40 04 	add  %g1, %g4, %g1
   11de4:	81 80 00 00 	mov  %g0, %y
   11de8:	01 00 00 00 	nop 
   11dec:	01 00 00 00 	nop 
   11df0:	01 00 00 00 	nop 
   11df4:	82 70 40 11 	udiv  %g1, %l1, %g1
   11df8:	c2 28 80 03 	stb  %g1, [ %g2 + %g3 ]
   11dfc:	86 00 e0 01 	inc  %g3
   11e00:	80 a4 40 03 	cmp  %l1, %g3
   11e04:	36 bf ff f5 	bge,a   11dd8 <start_input_ppm+0x384>
   11e08:	c4 06 60 24 	ld  [ %i1 + 0x24 ], %g2
   11e0c:	81 c7 e0 08 	ret 
   11e10:	81 e8 00 00 	restore 

00011e14 <finish_input_ppm>:
   11e14:	81 c3 e0 08 	retl 
   11e18:	01 00 00 00 	nop 

00011e1c <jinit_read_ppm>:
   11e1c:	9d e3 bf 98 	save  %sp, -104, %sp
   11e20:	90 10 00 18 	mov  %i0, %o0
   11e24:	c2 06 20 04 	ld  [ %i0 + 4 ], %g1
   11e28:	c2 00 40 00 	ld  [ %g1 ], %g1
   11e2c:	92 10 20 01 	mov  1, %o1
   11e30:	9f c0 40 00 	call  %g1
   11e34:	94 10 20 28 	mov  0x28, %o2
   11e38:	03 00 00 46 	sethi  %hi(0x11800), %g1
   11e3c:	82 10 62 54 	or  %g1, 0x254, %g1	! 11a54 <start_input_ppm>
   11e40:	c2 22 00 00 	st  %g1, [ %o0 ]
   11e44:	03 00 00 47 	sethi  %hi(0x11c00), %g1
   11e48:	82 10 62 14 	or  %g1, 0x214, %g1	! 11e14 <finish_input_ppm>
   11e4c:	c2 22 20 08 	st  %g1, [ %o0 + 8 ]
   11e50:	81 c7 e0 08 	ret 
   11e54:	91 e8 00 08 	restore  %g0, %o0, %o0

00011e58 <ReadByte>:
   11e58:	9d e3 bf 98 	save  %sp, -104, %sp
   11e5c:	a0 10 00 18 	mov  %i0, %l0
   11e60:	40 00 86 56 	call  337b8 <_IO_getc@plt>
   11e64:	d0 06 20 0c 	ld  [ %i0 + 0xc ], %o0
   11e68:	80 a2 3f ff 	cmp  %o0, -1
   11e6c:	12 80 00 0b 	bne  11e98 <ReadByte+0x40>
   11e70:	b0 10 00 08 	mov  %o0, %i0
   11e74:	c2 04 20 18 	ld  [ %l0 + 0x18 ], %g1
   11e78:	c4 00 40 00 	ld  [ %g1 ], %g2
   11e7c:	82 10 20 2a 	mov  0x2a, %g1
   11e80:	c2 20 a0 14 	st  %g1, [ %g2 + 0x14 ]
   11e84:	d0 04 20 18 	ld  [ %l0 + 0x18 ], %o0
   11e88:	c2 02 00 00 	ld  [ %o0 ], %g1
   11e8c:	c2 00 40 00 	ld  [ %g1 ], %g1
   11e90:	9f c0 40 00 	call  %g1
   11e94:	01 00 00 00 	nop 
   11e98:	81 c7 e0 08 	ret 
   11e9c:	81 e8 00 00 	restore 

00011ea0 <GetDataBlock>:
   11ea0:	9d e3 bf 98 	save  %sp, -104, %sp
   11ea4:	a0 10 00 18 	mov  %i0, %l0
   11ea8:	7f ff ff ec 	call  11e58 <ReadByte>
   11eac:	90 10 00 18 	mov  %i0, %o0
   11eb0:	80 a2 20 00 	cmp  %o0, 0
   11eb4:	04 80 00 13 	ble  11f00 <GetDataBlock+0x60>
   11eb8:	b0 10 00 08 	mov  %o0, %i0
   11ebc:	90 10 00 19 	mov  %i1, %o0
   11ec0:	92 10 20 01 	mov  1, %o1
   11ec4:	94 10 00 18 	mov  %i0, %o2
   11ec8:	40 00 86 18 	call  33728 <fread@plt>
   11ecc:	d6 04 20 0c 	ld  [ %l0 + 0xc ], %o3
   11ed0:	80 a2 00 18 	cmp  %o0, %i0
   11ed4:	02 80 00 0b 	be  11f00 <GetDataBlock+0x60>
   11ed8:	01 00 00 00 	nop 
   11edc:	c2 04 20 18 	ld  [ %l0 + 0x18 ], %g1
   11ee0:	c4 00 40 00 	ld  [ %g1 ], %g2
   11ee4:	82 10 20 2a 	mov  0x2a, %g1
   11ee8:	c2 20 a0 14 	st  %g1, [ %g2 + 0x14 ]
   11eec:	d0 04 20 18 	ld  [ %l0 + 0x18 ], %o0
   11ef0:	c2 02 00 00 	ld  [ %o0 ], %g1
   11ef4:	c2 00 40 00 	ld  [ %g1 ], %g1
   11ef8:	9f c0 40 00 	call  %g1
   11efc:	01 00 00 00 	nop 
   11f00:	81 c7 e0 08 	ret 
   11f04:	81 e8 00 00 	restore 

00011f08 <SkipDataBlocks>:
   11f08:	9d e3 be 98 	save  %sp, -360, %sp
   11f0c:	90 10 00 18 	mov  %i0, %o0
   11f10:	7f ff ff e4 	call  11ea0 <GetDataBlock>
   11f14:	92 07 be f8 	add  %fp, -264, %o1
   11f18:	80 a2 20 00 	cmp  %o0, 0
   11f1c:	14 bf ff fd 	bg  11f10 <SkipDataBlocks+0x8>
   11f20:	90 10 00 18 	mov  %i0, %o0
   11f24:	81 c7 e0 08 	ret 
   11f28:	81 e8 00 00 	restore 

00011f2c <ReInitLZW>:
   11f2c:	c2 02 21 34 	ld  [ %o0 + 0x134 ], %g1
   11f30:	82 00 60 01 	inc  %g1
   11f34:	c2 22 21 40 	st  %g1, [ %o0 + 0x140 ]
   11f38:	c2 02 21 38 	ld  [ %o0 + 0x138 ], %g1
   11f3c:	84 00 40 01 	add  %g1, %g1, %g2
   11f40:	c4 22 21 44 	st  %g2, [ %o0 + 0x144 ]
   11f44:	82 00 60 02 	add  %g1, 2, %g1
   11f48:	c2 22 21 48 	st  %g1, [ %o0 + 0x148 ]
   11f4c:	c2 02 21 60 	ld  [ %o0 + 0x160 ], %g1
   11f50:	81 c3 e0 08 	retl 
   11f54:	c2 22 21 64 	st  %g1, [ %o0 + 0x164 ]

00011f58 <InitLZWCode>:
   11f58:	9d e3 bf 98 	save  %sp, -104, %sp
   11f5c:	90 10 00 18 	mov  %i0, %o0
   11f60:	82 10 20 02 	mov  2, %g1
   11f64:	c2 26 21 24 	st  %g1, [ %i0 + 0x124 ]
   11f68:	c0 26 21 28 	clr  [ %i0 + 0x128 ]
   11f6c:	c0 26 21 2c 	clr  [ %i0 + 0x12c ]
   11f70:	c0 26 21 30 	clr  [ %i0 + 0x130 ]
   11f74:	84 10 20 01 	mov  1, %g2
   11f78:	c2 06 21 34 	ld  [ %i0 + 0x134 ], %g1
   11f7c:	83 28 80 01 	sll  %g2, %g1, %g1
   11f80:	c2 26 21 38 	st  %g1, [ %i0 + 0x138 ]
   11f84:	82 00 60 01 	inc  %g1
   11f88:	c2 26 21 3c 	st  %g1, [ %i0 + 0x13c ]
   11f8c:	7f ff ff e8 	call  11f2c <ReInitLZW>
   11f90:	c4 26 21 4c 	st  %g2, [ %i0 + 0x14c ]
   11f94:	01 00 00 00 	nop 
   11f98:	81 c7 e0 08 	ret 
   11f9c:	81 e8 00 00 	restore 

00011fa0 <GetCode>:
   11fa0:	9d e3 bf 98 	save  %sp, -104, %sp
   11fa4:	c2 06 21 2c 	ld  [ %i0 + 0x12c ], %g1
   11fa8:	c4 06 21 40 	ld  [ %i0 + 0x140 ], %g2
   11fac:	82 00 40 02 	add  %g1, %g2, %g1
   11fb0:	c4 06 21 28 	ld  [ %i0 + 0x128 ], %g2
   11fb4:	80 a0 40 02 	cmp  %g1, %g2
   11fb8:	24 80 00 36 	ble,a   12090 <GetCode+0xf0>
   11fbc:	c8 06 21 2c 	ld  [ %i0 + 0x12c ], %g4
   11fc0:	a0 10 24 00 	mov  0x400, %l0
   11fc4:	c2 06 21 30 	ld  [ %i0 + 0x130 ], %g1
   11fc8:	80 a0 60 00 	cmp  %g1, 0
   11fcc:	22 80 00 0c 	be,a   11ffc <GetCode+0x5c>
   11fd0:	c2 06 21 24 	ld  [ %i0 + 0x124 ], %g1
   11fd4:	c2 06 20 18 	ld  [ %i0 + 0x18 ], %g1
   11fd8:	c2 00 40 00 	ld  [ %g1 ], %g1
   11fdc:	e0 20 60 14 	st  %l0, [ %g1 + 0x14 ]
   11fe0:	d0 06 20 18 	ld  [ %i0 + 0x18 ], %o0
   11fe4:	c2 02 00 00 	ld  [ %o0 ], %g1
   11fe8:	c2 00 60 04 	ld  [ %g1 + 4 ], %g1
   11fec:	9f c0 40 00 	call  %g1
   11ff0:	92 10 3f ff 	mov  -1, %o1
   11ff4:	10 80 00 39 	b  120d8 <GetCode+0x138>
   11ff8:	f0 06 21 3c 	ld  [ %i0 + 0x13c ], %i0
   11ffc:	82 00 40 18 	add  %g1, %i0, %g1
   12000:	c4 08 60 1e 	ldub  [ %g1 + 0x1e ], %g2
   12004:	c4 2e 20 20 	stb  %g2, [ %i0 + 0x20 ]
   12008:	c2 08 60 1f 	ldub  [ %g1 + 0x1f ], %g1
   1200c:	c2 2e 20 21 	stb  %g1, [ %i0 + 0x21 ]
   12010:	90 10 00 18 	mov  %i0, %o0
   12014:	7f ff ff a3 	call  11ea0 <GetDataBlock>
   12018:	92 06 20 22 	add  %i0, 0x22, %o1
   1201c:	80 a2 20 00 	cmp  %o0, 0
   12020:	32 80 00 0e 	bne,a   12058 <GetCode+0xb8>
   12024:	c2 06 21 2c 	ld  [ %i0 + 0x12c ], %g1
   12028:	82 10 20 01 	mov  1, %g1
   1202c:	c2 26 21 30 	st  %g1, [ %i0 + 0x130 ]
   12030:	c2 06 20 18 	ld  [ %i0 + 0x18 ], %g1
   12034:	c2 00 40 00 	ld  [ %g1 ], %g1
   12038:	e0 20 60 14 	st  %l0, [ %g1 + 0x14 ]
   1203c:	d0 06 20 18 	ld  [ %i0 + 0x18 ], %o0
   12040:	c2 02 00 00 	ld  [ %o0 ], %g1
   12044:	c2 00 60 04 	ld  [ %g1 + 4 ], %g1
   12048:	9f c0 40 00 	call  %g1
   1204c:	92 10 3f ff 	mov  -1, %o1
   12050:	10 80 00 22 	b  120d8 <GetCode+0x138>
   12054:	f0 06 21 3c 	ld  [ %i0 + 0x13c ], %i0
   12058:	c4 06 21 28 	ld  [ %i0 + 0x128 ], %g2
   1205c:	82 20 40 02 	sub  %g1, %g2, %g1
   12060:	82 00 60 10 	add  %g1, 0x10, %g1
   12064:	c2 26 21 2c 	st  %g1, [ %i0 + 0x12c ]
   12068:	84 02 20 02 	add  %o0, 2, %g2
   1206c:	c4 26 21 24 	st  %g2, [ %i0 + 0x124 ]
   12070:	85 28 a0 03 	sll  %g2, 3, %g2
   12074:	c4 26 21 28 	st  %g2, [ %i0 + 0x128 ]
   12078:	c6 06 21 40 	ld  [ %i0 + 0x140 ], %g3
   1207c:	82 00 40 03 	add  %g1, %g3, %g1
   12080:	80 a0 40 02 	cmp  %g1, %g2
   12084:	34 bf ff d1 	bg,a   11fc8 <GetCode+0x28>
   12088:	c2 06 21 30 	ld  [ %i0 + 0x130 ], %g1
   1208c:	c8 06 21 2c 	ld  [ %i0 + 0x12c ], %g4
   12090:	87 39 20 03 	sra  %g4, 3, %g3
   12094:	86 00 c0 18 	add  %g3, %i0, %g3
   12098:	c2 08 e0 22 	ldub  [ %g3 + 0x22 ], %g1
   1209c:	83 28 60 08 	sll  %g1, 8, %g1
   120a0:	c4 08 e0 21 	ldub  [ %g3 + 0x21 ], %g2
   120a4:	82 10 40 02 	or  %g1, %g2, %g1
   120a8:	83 28 60 08 	sll  %g1, 8, %g1
   120ac:	c4 08 e0 20 	ldub  [ %g3 + 0x20 ], %g2
   120b0:	82 10 40 02 	or  %g1, %g2, %g1
   120b4:	84 09 20 07 	and  %g4, 7, %g2
   120b8:	83 38 40 02 	sra  %g1, %g2, %g1
   120bc:	c6 06 21 40 	ld  [ %i0 + 0x140 ], %g3
   120c0:	84 10 20 01 	mov  1, %g2
   120c4:	85 28 80 03 	sll  %g2, %g3, %g2
   120c8:	84 00 bf ff 	add  %g2, -1, %g2
   120cc:	88 01 00 03 	add  %g4, %g3, %g4
   120d0:	c8 26 21 2c 	st  %g4, [ %i0 + 0x12c ]
   120d4:	b0 08 80 01 	and  %g2, %g1, %i0
   120d8:	81 c7 e0 08 	ret 
   120dc:	81 e8 00 00 	restore 

000120e0 <LZWReadByte>:
   120e0:	9d e3 bf 98 	save  %sp, -104, %sp
   120e4:	c2 06 21 4c 	ld  [ %i0 + 0x14c ], %g1
   120e8:	80 a0 60 00 	cmp  %g1, 0
   120ec:	22 80 00 05 	be,a   12100 <LZWReadByte+0x20>
   120f0:	c4 06 21 64 	ld  [ %i0 + 0x164 ], %g2
   120f4:	c0 26 21 4c 	clr  [ %i0 + 0x14c ]
   120f8:	10 80 00 0b 	b  12124 <LZWReadByte+0x44>
   120fc:	d0 06 21 38 	ld  [ %i0 + 0x138 ], %o0
   12100:	c2 06 21 60 	ld  [ %i0 + 0x160 ], %g1
   12104:	80 a0 80 01 	cmp  %g2, %g1
   12108:	08 80 00 05 	bleu  1211c <LZWReadByte+0x3c>
   1210c:	82 00 bf ff 	add  %g2, -1, %g1
   12110:	c2 26 21 64 	st  %g1, [ %i0 + 0x164 ]
   12114:	10 80 00 79 	b  122f8 <LZWReadByte+0x218>
   12118:	d0 08 bf ff 	ldub  [ %g2 + -1 ], %o0
   1211c:	7f ff ff a1 	call  11fa0 <GetCode>
   12120:	90 10 00 18 	mov  %i0, %o0
   12124:	c2 06 21 38 	ld  [ %i0 + 0x138 ], %g1
   12128:	80 a0 40 08 	cmp  %g1, %o0
   1212c:	32 80 00 19 	bne,a   12190 <LZWReadByte+0xb0>
   12130:	c2 06 21 3c 	ld  [ %i0 + 0x13c ], %g1
   12134:	7f ff ff 7e 	call  11f2c <ReInitLZW>
   12138:	90 10 00 18 	mov  %i0, %o0
   1213c:	7f ff ff 99 	call  11fa0 <GetCode>
   12140:	90 10 00 18 	mov  %i0, %o0
   12144:	c2 06 21 38 	ld  [ %i0 + 0x138 ], %g1
   12148:	80 a0 40 08 	cmp  %g1, %o0
   1214c:	02 bf ff fc 	be  1213c <LZWReadByte+0x5c>
   12150:	01 00 00 00 	nop 
   12154:	36 80 00 0d 	bge,a   12188 <LZWReadByte+0xa8>
   12158:	d0 26 21 50 	st  %o0, [ %i0 + 0x150 ]
   1215c:	c2 06 20 18 	ld  [ %i0 + 0x18 ], %g1
   12160:	c4 00 40 00 	ld  [ %g1 ], %g2
   12164:	82 10 23 fd 	mov  0x3fd, %g1
   12168:	c2 20 a0 14 	st  %g1, [ %g2 + 0x14 ]
   1216c:	d0 06 20 18 	ld  [ %i0 + 0x18 ], %o0
   12170:	c2 02 00 00 	ld  [ %o0 ], %g1
   12174:	c2 00 60 04 	ld  [ %g1 + 4 ], %g1
   12178:	9f c0 40 00 	call  %g1
   1217c:	92 10 3f ff 	mov  -1, %o1
   12180:	90 10 20 00 	clr  %o0
   12184:	d0 26 21 50 	st  %o0, [ %i0 + 0x150 ]
   12188:	10 80 00 5c 	b  122f8 <LZWReadByte+0x218>
   1218c:	d0 26 21 54 	st  %o0, [ %i0 + 0x154 ]
   12190:	80 a0 40 08 	cmp  %g1, %o0
   12194:	32 80 00 15 	bne,a   121e8 <LZWReadByte+0x108>
   12198:	c2 06 21 48 	ld  [ %i0 + 0x148 ], %g1
   1219c:	c2 06 21 30 	ld  [ %i0 + 0x130 ], %g1
   121a0:	80 a0 60 00 	cmp  %g1, 0
   121a4:	32 80 00 07 	bne,a   121c0 <LZWReadByte+0xe0>
   121a8:	c2 06 20 18 	ld  [ %i0 + 0x18 ], %g1
   121ac:	7f ff ff 57 	call  11f08 <SkipDataBlocks>
   121b0:	90 10 00 18 	mov  %i0, %o0
   121b4:	82 10 20 01 	mov  1, %g1
   121b8:	c2 26 21 30 	st  %g1, [ %i0 + 0x130 ]
   121bc:	c2 06 20 18 	ld  [ %i0 + 0x18 ], %g1
   121c0:	c4 00 40 00 	ld  [ %g1 ], %g2
   121c4:	82 10 23 ff 	mov  0x3ff, %g1
   121c8:	c2 20 a0 14 	st  %g1, [ %g2 + 0x14 ]
   121cc:	d0 06 20 18 	ld  [ %i0 + 0x18 ], %o0
   121d0:	c2 02 00 00 	ld  [ %o0 ], %g1
   121d4:	c2 00 60 04 	ld  [ %g1 + 4 ], %g1
   121d8:	9f c0 40 00 	call  %g1
   121dc:	92 10 3f ff 	mov  -1, %o1
   121e0:	10 80 00 46 	b  122f8 <LZWReadByte+0x218>
   121e4:	90 10 20 00 	clr  %o0
   121e8:	80 a0 40 08 	cmp  %g1, %o0
   121ec:	14 80 00 15 	bg  12240 <LZWReadByte+0x160>
   121f0:	88 10 00 08 	mov  %o0, %g4
   121f4:	80 a0 40 08 	cmp  %g1, %o0
   121f8:	36 80 00 0d 	bge,a   1222c <LZWReadByte+0x14c>
   121fc:	c2 06 21 64 	ld  [ %i0 + 0x164 ], %g1
   12200:	c2 06 20 18 	ld  [ %i0 + 0x18 ], %g1
   12204:	c4 00 40 00 	ld  [ %g1 ], %g2
   12208:	82 10 23 fd 	mov  0x3fd, %g1
   1220c:	c2 20 a0 14 	st  %g1, [ %g2 + 0x14 ]
   12210:	d0 06 20 18 	ld  [ %i0 + 0x18 ], %o0
   12214:	c2 02 00 00 	ld  [ %o0 ], %g1
   12218:	c2 00 60 04 	ld  [ %g1 + 4 ], %g1
   1221c:	9f c0 40 00 	call  %g1
   12220:	92 10 3f ff 	mov  -1, %o1
   12224:	88 10 20 00 	clr  %g4
   12228:	c2 06 21 64 	ld  [ %i0 + 0x164 ], %g1
   1222c:	c4 06 21 54 	ld  [ %i0 + 0x154 ], %g2
   12230:	c4 28 40 00 	stb  %g2, [ %g1 ]
   12234:	82 00 60 01 	inc  %g1
   12238:	c2 26 21 64 	st  %g1, [ %i0 + 0x164 ]
   1223c:	d0 06 21 50 	ld  [ %i0 + 0x150 ], %o0
   12240:	c2 06 21 38 	ld  [ %i0 + 0x138 ], %g1
   12244:	80 a0 40 08 	cmp  %g1, %o0
   12248:	34 80 00 10 	bg,a   12288 <LZWReadByte+0x1a8>
   1224c:	d0 26 21 54 	st  %o0, [ %i0 + 0x154 ]
   12250:	c2 06 21 64 	ld  [ %i0 + 0x164 ], %g1
   12254:	c4 06 21 5c 	ld  [ %i0 + 0x15c ], %g2
   12258:	c4 08 80 08 	ldub  [ %g2 + %o0 ], %g2
   1225c:	c4 28 40 00 	stb  %g2, [ %g1 ]
   12260:	82 00 60 01 	inc  %g1
   12264:	c2 26 21 64 	st  %g1, [ %i0 + 0x164 ]
   12268:	c4 06 21 58 	ld  [ %i0 + 0x158 ], %g2
   1226c:	82 02 00 08 	add  %o0, %o0, %g1
   12270:	d0 10 80 01 	lduh  [ %g2 + %g1 ], %o0
   12274:	c2 06 21 38 	ld  [ %i0 + 0x138 ], %g1
   12278:	80 a0 40 08 	cmp  %g1, %o0
   1227c:	24 bf ff f6 	ble,a   12254 <LZWReadByte+0x174>
   12280:	c2 06 21 64 	ld  [ %i0 + 0x164 ], %g1
   12284:	d0 26 21 54 	st  %o0, [ %i0 + 0x154 ]
   12288:	d0 06 21 48 	ld  [ %i0 + 0x148 ], %o0
   1228c:	80 a2 2f ff 	cmp  %o0, 0xfff
   12290:	34 80 00 19 	bg,a   122f4 <LZWReadByte+0x214>
   12294:	c8 26 21 50 	st  %g4, [ %i0 + 0x150 ]
   12298:	c6 06 21 58 	ld  [ %i0 + 0x158 ], %g3
   1229c:	84 02 00 08 	add  %o0, %o0, %g2
   122a0:	c2 06 21 50 	ld  [ %i0 + 0x150 ], %g1
   122a4:	c2 30 c0 02 	sth  %g1, [ %g3 + %g2 ]
   122a8:	c4 06 21 5c 	ld  [ %i0 + 0x15c ], %g2
   122ac:	c2 06 21 54 	ld  [ %i0 + 0x154 ], %g1
   122b0:	c2 28 80 08 	stb  %g1, [ %g2 + %o0 ]
   122b4:	c2 06 21 48 	ld  [ %i0 + 0x148 ], %g1
   122b8:	82 00 60 01 	inc  %g1
   122bc:	c2 26 21 48 	st  %g1, [ %i0 + 0x148 ]
   122c0:	c4 06 21 44 	ld  [ %i0 + 0x144 ], %g2
   122c4:	80 a0 40 02 	cmp  %g1, %g2
   122c8:	26 80 00 0b 	bl,a   122f4 <LZWReadByte+0x214>
   122cc:	c8 26 21 50 	st  %g4, [ %i0 + 0x150 ]
   122d0:	c2 06 21 40 	ld  [ %i0 + 0x140 ], %g1
   122d4:	80 a0 60 0b 	cmp  %g1, 0xb
   122d8:	34 80 00 07 	bg,a   122f4 <LZWReadByte+0x214>
   122dc:	c8 26 21 50 	st  %g4, [ %i0 + 0x150 ]
   122e0:	82 00 60 01 	inc  %g1
   122e4:	c2 26 21 40 	st  %g1, [ %i0 + 0x140 ]
   122e8:	82 00 80 02 	add  %g2, %g2, %g1
   122ec:	c2 26 21 44 	st  %g1, [ %i0 + 0x144 ]
   122f0:	c8 26 21 50 	st  %g4, [ %i0 + 0x150 ]
   122f4:	d0 06 21 54 	ld  [ %i0 + 0x154 ], %o0
   122f8:	81 c7 e0 08 	ret 
   122fc:	91 e8 00 08 	restore  %g0, %o0, %o0

00012300 <ReadColorMap>:
   12300:	9d e3 bf 98 	save  %sp, -104, %sp
   12304:	a2 10 20 00 	clr  %l1
   12308:	80 a4 40 19 	cmp  %l1, %i1
   1230c:	16 80 00 12 	bge  12354 <ReadColorMap+0x54>
   12310:	01 00 00 00 	nop 
   12314:	e0 06 80 00 	ld  [ %i2 ], %l0
   12318:	7f ff fe d0 	call  11e58 <ReadByte>
   1231c:	90 10 00 18 	mov  %i0, %o0
   12320:	d0 2c 00 11 	stb  %o0, [ %l0 + %l1 ]
   12324:	e0 06 a0 04 	ld  [ %i2 + 4 ], %l0
   12328:	7f ff fe cc 	call  11e58 <ReadByte>
   1232c:	90 10 00 18 	mov  %i0, %o0
   12330:	d0 2c 00 11 	stb  %o0, [ %l0 + %l1 ]
   12334:	e0 06 a0 08 	ld  [ %i2 + 8 ], %l0
   12338:	7f ff fe c8 	call  11e58 <ReadByte>
   1233c:	90 10 00 18 	mov  %i0, %o0
   12340:	d0 2c 00 11 	stb  %o0, [ %l0 + %l1 ]
   12344:	a2 04 60 01 	inc  %l1
   12348:	80 a4 40 19 	cmp  %l1, %i1
   1234c:	26 bf ff f3 	bl,a   12318 <ReadColorMap+0x18>
   12350:	e0 06 80 00 	ld  [ %i2 ], %l0
   12354:	81 c7 e0 08 	ret 
   12358:	81 e8 00 00 	restore 

0001235c <DoExtension>:
   1235c:	9d e3 bf 98 	save  %sp, -104, %sp
   12360:	7f ff fe be 	call  11e58 <ReadByte>
   12364:	90 10 00 18 	mov  %i0, %o0
   12368:	c2 06 20 18 	ld  [ %i0 + 0x18 ], %g1
   1236c:	c4 00 40 00 	ld  [ %g1 ], %g2
   12370:	82 10 23 fb 	mov  0x3fb, %g1
   12374:	c2 20 a0 14 	st  %g1, [ %g2 + 0x14 ]
   12378:	c2 06 20 18 	ld  [ %i0 + 0x18 ], %g1
   1237c:	c2 00 40 00 	ld  [ %g1 ], %g1
   12380:	d0 20 60 18 	st  %o0, [ %g1 + 0x18 ]
   12384:	d0 06 20 18 	ld  [ %i0 + 0x18 ], %o0
   12388:	c2 02 00 00 	ld  [ %o0 ], %g1
   1238c:	c2 00 60 04 	ld  [ %g1 + 4 ], %g1
   12390:	9f c0 40 00 	call  %g1
   12394:	92 10 20 01 	mov  1, %o1
   12398:	7f ff fe dc 	call  11f08 <SkipDataBlocks>
   1239c:	90 10 00 18 	mov  %i0, %o0
   123a0:	01 00 00 00 	nop 
   123a4:	81 c7 e0 08 	ret 
   123a8:	81 e8 00 00 	restore 

000123ac <start_input_gif>:
   123ac:	9d e3 bf 88 	save  %sp, -120, %sp
   123b0:	c2 06 20 04 	ld  [ %i0 + 4 ], %g1
   123b4:	c2 00 60 08 	ld  [ %g1 + 8 ], %g1
   123b8:	90 10 00 18 	mov  %i0, %o0
   123bc:	92 10 20 01 	mov  1, %o1
   123c0:	94 10 21 00 	mov  0x100, %o2
   123c4:	9f c0 40 00 	call  %g1
   123c8:	96 10 20 03 	mov  3, %o3
   123cc:	d0 26 60 1c 	st  %o0, [ %i1 + 0x1c ]
   123d0:	90 07 bf e8 	add  %fp, -24, %o0
   123d4:	92 10 20 01 	mov  1, %o1
   123d8:	94 10 20 06 	mov  6, %o2
   123dc:	40 00 84 d3 	call  33728 <fread@plt>
   123e0:	d6 06 60 0c 	ld  [ %i1 + 0xc ], %o3
   123e4:	80 a2 20 06 	cmp  %o0, 6
   123e8:	02 80 00 08 	be  12408 <start_input_gif+0x5c>
   123ec:	82 10 23 f8 	mov  0x3f8, %g1
   123f0:	c4 06 00 00 	ld  [ %i0 ], %g2
   123f4:	c2 20 a0 14 	st  %g1, [ %g2 + 0x14 ]
   123f8:	c2 06 00 00 	ld  [ %i0 ], %g1
   123fc:	c2 00 40 00 	ld  [ %g1 ], %g1
   12400:	9f c0 40 00 	call  %g1
   12404:	90 10 00 18 	mov  %i0, %o0
   12408:	c2 4f bf e8 	ldsb  [ %fp + -24 ], %g1
   1240c:	80 a0 60 47 	cmp  %g1, 0x47
   12410:	32 80 00 0b 	bne,a   1243c <start_input_gif+0x90>
   12414:	c4 06 00 00 	ld  [ %i0 ], %g2
   12418:	c2 4f bf e9 	ldsb  [ %fp + -23 ], %g1
   1241c:	80 a0 60 49 	cmp  %g1, 0x49
   12420:	32 80 00 07 	bne,a   1243c <start_input_gif+0x90>
   12424:	c4 06 00 00 	ld  [ %i0 ], %g2
   12428:	c2 4f bf ea 	ldsb  [ %fp + -22 ], %g1
   1242c:	80 a0 60 46 	cmp  %g1, 0x46
   12430:	02 80 00 0a 	be  12458 <start_input_gif+0xac>
   12434:	c2 4f bf eb 	ldsb  [ %fp + -21 ], %g1
   12438:	c4 06 00 00 	ld  [ %i0 ], %g2
   1243c:	82 10 23 f8 	mov  0x3f8, %g1
   12440:	c2 20 a0 14 	st  %g1, [ %g2 + 0x14 ]
   12444:	c2 06 00 00 	ld  [ %i0 ], %g1
   12448:	c2 00 40 00 	ld  [ %g1 ], %g1
   1244c:	9f c0 40 00 	call  %g1
   12450:	90 10 00 18 	mov  %i0, %o0
   12454:	c2 4f bf eb 	ldsb  [ %fp + -21 ], %g1
   12458:	80 a0 60 38 	cmp  %g1, 0x38
   1245c:	32 80 00 11 	bne,a   124a0 <start_input_gif+0xf4>
   12460:	c4 06 00 00 	ld  [ %i0 ], %g2
   12464:	c2 4f bf ec 	ldsb  [ %fp + -20 ], %g1
   12468:	84 18 60 37 	xor  %g1, 0x37, %g2
   1246c:	80 a0 00 02 	cmp  %g0, %g2
   12470:	84 40 20 00 	addx  %g0, 0, %g2
   12474:	82 18 60 39 	xor  %g1, 0x39, %g1
   12478:	80 a0 00 01 	cmp  %g0, %g1
   1247c:	82 40 20 00 	addx  %g0, 0, %g1
   12480:	80 88 80 01 	btst  %g2, %g1
   12484:	32 80 00 07 	bne,a   124a0 <start_input_gif+0xf4>
   12488:	c4 06 00 00 	ld  [ %i0 ], %g2
   1248c:	c2 4f bf ed 	ldsb  [ %fp + -19 ], %g1
   12490:	80 a0 60 61 	cmp  %g1, 0x61
   12494:	02 80 00 13 	be  124e0 <start_input_gif+0x134>
   12498:	90 07 bf e8 	add  %fp, -24, %o0
   1249c:	c4 06 00 00 	ld  [ %i0 ], %g2
   124a0:	86 00 a0 18 	add  %g2, 0x18, %g3
   124a4:	c2 4f bf eb 	ldsb  [ %fp + -21 ], %g1
   124a8:	c2 20 a0 18 	st  %g1, [ %g2 + 0x18 ]
   124ac:	c2 4f bf ec 	ldsb  [ %fp + -20 ], %g1
   124b0:	c2 20 e0 04 	st  %g1, [ %g3 + 4 ]
   124b4:	c2 4f bf ed 	ldsb  [ %fp + -19 ], %g1
   124b8:	c2 20 e0 08 	st  %g1, [ %g3 + 8 ]
   124bc:	c4 06 00 00 	ld  [ %i0 ], %g2
   124c0:	82 10 23 fa 	mov  0x3fa, %g1
   124c4:	c2 20 a0 14 	st  %g1, [ %g2 + 0x14 ]
   124c8:	c2 06 00 00 	ld  [ %i0 ], %g1
   124cc:	c2 00 60 04 	ld  [ %g1 + 4 ], %g1
   124d0:	90 10 00 18 	mov  %i0, %o0
   124d4:	9f c0 40 00 	call  %g1
   124d8:	92 10 20 01 	mov  1, %o1
   124dc:	90 07 bf e8 	add  %fp, -24, %o0
   124e0:	92 10 20 01 	mov  1, %o1
   124e4:	94 10 20 07 	mov  7, %o2
   124e8:	40 00 84 90 	call  33728 <fread@plt>
   124ec:	d6 06 60 0c 	ld  [ %i1 + 0xc ], %o3
   124f0:	80 a2 20 07 	cmp  %o0, 7
   124f4:	02 80 00 08 	be  12514 <start_input_gif+0x168>
   124f8:	82 10 20 2a 	mov  0x2a, %g1
   124fc:	c4 06 00 00 	ld  [ %i0 ], %g2
   12500:	c2 20 a0 14 	st  %g1, [ %g2 + 0x14 ]
   12504:	c2 06 00 00 	ld  [ %i0 ], %g1
   12508:	c2 00 40 00 	ld  [ %g1 ], %g1
   1250c:	9f c0 40 00 	call  %g1
   12510:	90 10 00 18 	mov  %i0, %o0
   12514:	c2 0f bf ec 	ldub  [ %fp + -20 ], %g1
   12518:	82 08 60 07 	and  %g1, 7, %g1
   1251c:	84 10 20 02 	mov  2, %g2
   12520:	a5 28 80 01 	sll  %g2, %g1, %l2
   12524:	c2 0f bf ee 	ldub  [ %fp + -18 ], %g1
   12528:	80 a0 00 01 	cmp  %g0, %g1
   1252c:	84 40 20 00 	addx  %g0, 0, %g2
   12530:	82 18 60 31 	xor  %g1, 0x31, %g1
   12534:	80 a0 00 01 	cmp  %g0, %g1
   12538:	82 40 20 00 	addx  %g0, 0, %g1
   1253c:	80 88 80 01 	btst  %g2, %g1
   12540:	02 80 00 0b 	be  1256c <start_input_gif+0x1c0>
   12544:	c2 4f bf ec 	ldsb  [ %fp + -20 ], %g1
   12548:	c4 06 00 00 	ld  [ %i0 ], %g2
   1254c:	82 10 23 fc 	mov  0x3fc, %g1
   12550:	c2 20 a0 14 	st  %g1, [ %g2 + 0x14 ]
   12554:	c2 06 00 00 	ld  [ %i0 ], %g1
   12558:	c2 00 60 04 	ld  [ %g1 + 4 ], %g1
   1255c:	90 10 00 18 	mov  %i0, %o0
   12560:	9f c0 40 00 	call  %g1
   12564:	92 10 20 01 	mov  1, %o1
   12568:	c2 4f bf ec 	ldsb  [ %fp + -20 ], %g1
   1256c:	80 a0 60 00 	cmp  %g1, 0
   12570:	16 80 00 05 	bge  12584 <start_input_gif+0x1d8>
   12574:	90 10 00 19 	mov  %i1, %o0
   12578:	92 10 00 12 	mov  %l2, %o1
   1257c:	7f ff ff 61 	call  12300 <ReadColorMap>
   12580:	d4 06 60 1c 	ld  [ %i1 + 0x1c ], %o2
   12584:	7f ff fe 35 	call  11e58 <ReadByte>
   12588:	90 10 00 19 	mov  %i1, %o0
   1258c:	80 a2 20 3b 	cmp  %o0, 0x3b
   12590:	12 80 00 09 	bne  125b4 <start_input_gif+0x208>
   12594:	a0 10 00 08 	mov  %o0, %l0
   12598:	c4 06 00 00 	ld  [ %i0 ], %g2
   1259c:	82 10 23 f7 	mov  0x3f7, %g1
   125a0:	c2 20 a0 14 	st  %g1, [ %g2 + 0x14 ]
   125a4:	c2 06 00 00 	ld  [ %i0 ], %g1
   125a8:	c2 00 40 00 	ld  [ %g1 ], %g1
   125ac:	9f c0 40 00 	call  %g1
   125b0:	90 10 00 18 	mov  %i0, %o0
   125b4:	80 a4 20 21 	cmp  %l0, 0x21
   125b8:	12 80 00 05 	bne  125cc <start_input_gif+0x220>
   125bc:	80 a4 20 2c 	cmp  %l0, 0x2c
   125c0:	7f ff ff 67 	call  1235c <DoExtension>
   125c4:	90 10 00 19 	mov  %i1, %o0
   125c8:	30 bf ff ef 	b,a   12584 <start_input_gif+0x1d8>
   125cc:	02 80 00 0c 	be  125fc <start_input_gif+0x250>
   125d0:	82 10 23 fe 	mov  0x3fe, %g1
   125d4:	c4 06 00 00 	ld  [ %i0 ], %g2
   125d8:	c2 20 a0 14 	st  %g1, [ %g2 + 0x14 ]
   125dc:	c2 06 00 00 	ld  [ %i0 ], %g1
   125e0:	e0 20 60 18 	st  %l0, [ %g1 + 0x18 ]
   125e4:	c2 06 00 00 	ld  [ %i0 ], %g1
   125e8:	c2 00 60 04 	ld  [ %g1 + 4 ], %g1
   125ec:	90 10 00 18 	mov  %i0, %o0
   125f0:	9f c0 40 00 	call  %g1
   125f4:	92 10 3f ff 	mov  -1, %o1
   125f8:	30 bf ff e3 	b,a   12584 <start_input_gif+0x1d8>
   125fc:	90 07 bf e8 	add  %fp, -24, %o0
   12600:	92 10 20 01 	mov  1, %o1
   12604:	94 10 20 09 	mov  9, %o2
   12608:	40 00 84 48 	call  33728 <fread@plt>
   1260c:	d6 06 60 0c 	ld  [ %i1 + 0xc ], %o3
   12610:	80 a2 20 09 	cmp  %o0, 9
   12614:	02 80 00 08 	be  12634 <start_input_gif+0x288>
   12618:	82 10 20 2a 	mov  0x2a, %g1
   1261c:	c4 06 00 00 	ld  [ %i0 ], %g2
   12620:	c2 20 a0 14 	st  %g1, [ %g2 + 0x14 ]
   12624:	c2 06 00 00 	ld  [ %i0 ], %g1
   12628:	c2 00 40 00 	ld  [ %g1 ], %g1
   1262c:	9f c0 40 00 	call  %g1
   12630:	90 10 00 18 	mov  %i0, %o0
   12634:	c2 0f bf ed 	ldub  [ %fp + -19 ], %g1
   12638:	83 28 60 08 	sll  %g1, 8, %g1
   1263c:	c4 0f bf ec 	ldub  [ %fp + -20 ], %g2
   12640:	a2 10 40 02 	or  %g1, %g2, %l1
   12644:	e0 0f bf ef 	ldub  [ %fp + -17 ], %l0
   12648:	a1 2c 20 08 	sll  %l0, 8, %l0
   1264c:	c2 0f bf ee 	ldub  [ %fp + -18 ], %g1
   12650:	a0 14 00 01 	or  %l0, %g1, %l0
   12654:	c4 0f bf f0 	ldub  [ %fp + -16 ], %g2
   12658:	86 08 a0 ff 	and  %g2, 0xff, %g3
   1265c:	82 08 e0 40 	and  %g3, 0x40, %g1
   12660:	80 88 a0 80 	btst  0x80, %g2
   12664:	02 80 00 09 	be  12688 <start_input_gif+0x2dc>
   12668:	c2 26 61 68 	st  %g1, [ %i1 + 0x168 ]
   1266c:	84 08 e0 07 	and  %g3, 7, %g2
   12670:	82 10 20 02 	mov  2, %g1
   12674:	a5 28 40 02 	sll  %g1, %g2, %l2
   12678:	90 10 00 19 	mov  %i1, %o0
   1267c:	92 10 00 12 	mov  %l2, %o1
   12680:	7f ff ff 20 	call  12300 <ReadColorMap>
   12684:	d4 06 60 1c 	ld  [ %i1 + 0x1c ], %o2
   12688:	7f ff fd f4 	call  11e58 <ReadByte>
   1268c:	90 10 00 19 	mov  %i1, %o0
   12690:	d0 26 61 34 	st  %o0, [ %i1 + 0x134 ]
   12694:	90 02 3f fe 	add  %o0, -2, %o0
   12698:	80 a2 20 09 	cmp  %o0, 9
   1269c:	28 80 00 0d 	bleu,a   126d0 <start_input_gif+0x324>
   126a0:	c2 06 20 04 	ld  [ %i0 + 4 ], %g1
   126a4:	c4 06 00 00 	ld  [ %i0 ], %g2
   126a8:	82 10 23 f5 	mov  0x3f5, %g1
   126ac:	c2 20 a0 14 	st  %g1, [ %g2 + 0x14 ]
   126b0:	c4 06 00 00 	ld  [ %i0 ], %g2
   126b4:	c2 06 61 34 	ld  [ %i1 + 0x134 ], %g1
   126b8:	c2 20 a0 18 	st  %g1, [ %g2 + 0x18 ]
   126bc:	c2 06 00 00 	ld  [ %i0 ], %g1
   126c0:	c2 00 40 00 	ld  [ %g1 ], %g1
   126c4:	9f c0 40 00 	call  %g1
   126c8:	90 10 00 18 	mov  %i0, %o0
   126cc:	c2 06 20 04 	ld  [ %i0 + 4 ], %g1
   126d0:	c2 00 60 04 	ld  [ %g1 + 4 ], %g1
   126d4:	90 10 00 18 	mov  %i0, %o0
   126d8:	92 10 20 01 	mov  1, %o1
   126dc:	9f c0 40 00 	call  %g1
   126e0:	15 00 00 08 	sethi  %hi(0x2000), %o2
   126e4:	d0 26 61 58 	st  %o0, [ %i1 + 0x158 ]
   126e8:	c2 06 20 04 	ld  [ %i0 + 4 ], %g1
   126ec:	c2 00 60 04 	ld  [ %g1 + 4 ], %g1
   126f0:	90 10 00 18 	mov  %i0, %o0
   126f4:	92 10 20 01 	mov  1, %o1
   126f8:	9f c0 40 00 	call  %g1
   126fc:	15 00 00 04 	sethi  %hi(0x1000), %o2
   12700:	d0 26 61 5c 	st  %o0, [ %i1 + 0x15c ]
   12704:	c2 06 20 04 	ld  [ %i0 + 4 ], %g1
   12708:	c2 00 60 04 	ld  [ %g1 + 4 ], %g1
   1270c:	90 10 00 18 	mov  %i0, %o0
   12710:	92 10 20 01 	mov  1, %o1
   12714:	9f c0 40 00 	call  %g1
   12718:	15 00 00 04 	sethi  %hi(0x1000), %o2
   1271c:	d0 26 61 60 	st  %o0, [ %i1 + 0x160 ]
   12720:	7f ff fe 0e 	call  11f58 <InitLZWCode>
   12724:	90 10 00 19 	mov  %i1, %o0
   12728:	c2 06 61 68 	ld  [ %i1 + 0x168 ], %g1
   1272c:	80 a0 60 00 	cmp  %g1, 0
   12730:	02 80 00 17 	be  1278c <start_input_gif+0x3e0>
   12734:	03 00 00 4a 	sethi  %hi(0x12800), %g1
   12738:	c2 06 20 04 	ld  [ %i0 + 4 ], %g1
   1273c:	c2 00 60 10 	ld  [ %g1 + 0x10 ], %g1
   12740:	90 10 00 18 	mov  %i0, %o0
   12744:	92 10 20 01 	mov  1, %o1
   12748:	94 10 20 00 	clr  %o2
   1274c:	96 10 00 11 	mov  %l1, %o3
   12750:	98 10 00 10 	mov  %l0, %o4
   12754:	9f c0 40 00 	call  %g1
   12758:	9a 10 20 01 	mov  1, %o5
   1275c:	d0 26 61 6c 	st  %o0, [ %i1 + 0x16c ]
   12760:	c4 06 20 08 	ld  [ %i0 + 8 ], %g2
   12764:	80 a0 a0 00 	cmp  %g2, 0
   12768:	02 80 00 06 	be  12780 <start_input_gif+0x3d4>
   1276c:	03 00 00 4a 	sethi  %hi(0x12800), %g1
   12770:	c2 00 a0 18 	ld  [ %g2 + 0x18 ], %g1
   12774:	82 00 60 01 	inc  %g1
   12778:	c2 20 a0 18 	st  %g1, [ %g2 + 0x18 ]
   1277c:	03 00 00 4a 	sethi  %hi(0x12800), %g1
   12780:	82 10 60 84 	or  %g1, 0x84, %g1	! 12884 <load_interlaced_image>
   12784:	10 80 00 04 	b  12794 <start_input_gif+0x3e8>
   12788:	c2 26 60 04 	st  %g1, [ %i1 + 4 ]
   1278c:	82 10 60 20 	or  %g1, 0x20, %g1
   12790:	c2 26 60 04 	st  %g1, [ %i1 + 4 ]
   12794:	c2 06 20 04 	ld  [ %i0 + 4 ], %g1
   12798:	94 04 40 11 	add  %l1, %l1, %o2
   1279c:	c2 00 60 08 	ld  [ %g1 + 8 ], %g1
   127a0:	90 10 00 18 	mov  %i0, %o0
   127a4:	92 10 20 01 	mov  1, %o1
   127a8:	94 02 80 11 	add  %o2, %l1, %o2
   127ac:	9f c0 40 00 	call  %g1
   127b0:	96 10 20 01 	mov  1, %o3
   127b4:	d0 26 60 10 	st  %o0, [ %i1 + 0x10 ]
   127b8:	82 10 20 01 	mov  1, %g1
   127bc:	c2 26 60 14 	st  %g1, [ %i1 + 0x14 ]
   127c0:	82 10 20 02 	mov  2, %g1
   127c4:	c2 26 20 24 	st  %g1, [ %i0 + 0x24 ]
   127c8:	82 10 20 03 	mov  3, %g1
   127cc:	c2 26 20 20 	st  %g1, [ %i0 + 0x20 ]
   127d0:	82 10 20 08 	mov  8, %g1
   127d4:	c2 26 20 30 	st  %g1, [ %i0 + 0x30 ]
   127d8:	e2 26 20 18 	st  %l1, [ %i0 + 0x18 ]
   127dc:	e0 26 20 1c 	st  %l0, [ %i0 + 0x1c ]
   127e0:	c2 06 00 00 	ld  [ %i0 ], %g1
   127e4:	84 00 60 18 	add  %g1, 0x18, %g2
   127e8:	e2 20 60 18 	st  %l1, [ %g1 + 0x18 ]
   127ec:	e0 20 a0 04 	st  %l0, [ %g2 + 4 ]
   127f0:	e4 20 a0 08 	st  %l2, [ %g2 + 8 ]
   127f4:	c4 06 00 00 	ld  [ %i0 ], %g2
   127f8:	82 10 23 f9 	mov  0x3f9, %g1
   127fc:	c2 20 a0 14 	st  %g1, [ %g2 + 0x14 ]
   12800:	c2 06 00 00 	ld  [ %i0 ], %g1
   12804:	c2 00 60 04 	ld  [ %g1 + 4 ], %g1
   12808:	90 10 00 18 	mov  %i0, %o0
   1280c:	9f c0 40 00 	call  %g1
   12810:	92 10 20 01 	mov  1, %o1
   12814:	01 00 00 00 	nop 
   12818:	81 c7 e0 08 	ret 
   1281c:	81 e8 00 00 	restore 

00012820 <get_pixel_rows>:
   12820:	9d e3 bf 98 	save  %sp, -104, %sp
   12824:	e2 06 60 1c 	ld  [ %i1 + 0x1c ], %l1
   12828:	c2 06 60 10 	ld  [ %i1 + 0x10 ], %g1
   1282c:	f0 06 20 18 	ld  [ %i0 + 0x18 ], %i0
   12830:	80 a6 20 00 	cmp  %i0, 0
   12834:	02 80 00 12 	be  1287c <get_pixel_rows+0x5c>
   12838:	e0 00 40 00 	ld  [ %g1 ], %l0
   1283c:	7f ff fe 29 	call  120e0 <LZWReadByte>
   12840:	90 10 00 19 	mov  %i1, %o0
   12844:	c2 04 40 00 	ld  [ %l1 ], %g1
   12848:	c2 08 40 08 	ldub  [ %g1 + %o0 ], %g1
   1284c:	c2 2c 00 00 	stb  %g1, [ %l0 ]
   12850:	a0 04 20 01 	inc  %l0
   12854:	c2 04 60 04 	ld  [ %l1 + 4 ], %g1
   12858:	c2 08 40 08 	ldub  [ %g1 + %o0 ], %g1
   1285c:	c2 2c 00 00 	stb  %g1, [ %l0 ]
   12860:	a0 04 20 01 	inc  %l0
   12864:	c2 04 60 08 	ld  [ %l1 + 8 ], %g1
   12868:	c2 08 40 08 	ldub  [ %g1 + %o0 ], %g1
   1286c:	c2 2c 00 00 	stb  %g1, [ %l0 ]
   12870:	b0 86 3f ff 	addcc  %i0, -1, %i0
   12874:	12 bf ff f2 	bne  1283c <get_pixel_rows+0x1c>
   12878:	a0 04 20 01 	inc  %l0
   1287c:	81 c7 e0 08 	ret 
   12880:	91 e8 20 01 	restore  %g0, 1, %o0

00012884 <load_interlaced_image>:
   12884:	9d e3 bf 98 	save  %sp, -104, %sp
   12888:	a6 10 00 19 	mov  %i1, %l3
   1288c:	e8 06 20 08 	ld  [ %i0 + 8 ], %l4
   12890:	c2 06 20 1c 	ld  [ %i0 + 0x1c ], %g1
   12894:	80 a0 60 00 	cmp  %g1, 0
   12898:	08 80 00 23 	bleu  12924 <load_interlaced_image+0xa0>
   1289c:	aa 10 20 00 	clr  %l5
   128a0:	80 a5 20 00 	cmp  %l4, 0
   128a4:	22 80 00 09 	be,a   128c8 <load_interlaced_image+0x44>
   128a8:	c2 06 20 04 	ld  [ %i0 + 4 ], %g1
   128ac:	ea 25 20 04 	st  %l5, [ %l4 + 4 ]
   128b0:	c2 06 20 1c 	ld  [ %i0 + 0x1c ], %g1
   128b4:	c2 25 20 08 	st  %g1, [ %l4 + 8 ]
   128b8:	c2 05 00 00 	ld  [ %l4 ], %g1
   128bc:	9f c0 40 00 	call  %g1
   128c0:	90 10 00 18 	mov  %i0, %o0
   128c4:	c2 06 20 04 	ld  [ %i0 + 4 ], %g1
   128c8:	c2 00 60 1c 	ld  [ %g1 + 0x1c ], %g1
   128cc:	90 10 00 18 	mov  %i0, %o0
   128d0:	d2 04 e1 6c 	ld  [ %l3 + 0x16c ], %o1
   128d4:	94 10 00 15 	mov  %l5, %o2
   128d8:	96 10 20 01 	mov  1, %o3
   128dc:	9f c0 40 00 	call  %g1
   128e0:	98 10 20 01 	mov  1, %o4
   128e4:	e2 06 20 18 	ld  [ %i0 + 0x18 ], %l1
   128e8:	80 a4 60 00 	cmp  %l1, 0
   128ec:	02 80 00 09 	be  12910 <load_interlaced_image+0x8c>
   128f0:	e4 02 00 00 	ld  [ %o0 ], %l2
   128f4:	a0 10 00 12 	mov  %l2, %l0
   128f8:	a4 04 a0 01 	inc  %l2
   128fc:	7f ff fd f9 	call  120e0 <LZWReadByte>
   12900:	90 10 00 13 	mov  %l3, %o0
   12904:	a2 84 7f ff 	addcc  %l1, -1, %l1
   12908:	12 bf ff fb 	bne  128f4 <load_interlaced_image+0x70>
   1290c:	d0 2c 00 00 	stb  %o0, [ %l0 ]
   12910:	aa 05 60 01 	inc  %l5
   12914:	c2 06 20 1c 	ld  [ %i0 + 0x1c ], %g1
   12918:	80 a0 40 15 	cmp  %g1, %l5
   1291c:	18 bf ff e2 	bgu  128a4 <load_interlaced_image+0x20>
   12920:	80 a5 20 00 	cmp  %l4, 0
   12924:	80 a5 20 00 	cmp  %l4, 0
   12928:	02 80 00 06 	be  12940 <load_interlaced_image+0xbc>
   1292c:	03 00 00 4a 	sethi  %hi(0x12800), %g1
   12930:	c2 05 20 14 	ld  [ %l4 + 0x14 ], %g1
   12934:	82 00 60 01 	inc  %g1
   12938:	c2 25 20 14 	st  %g1, [ %l4 + 0x14 ]
   1293c:	03 00 00 4a 	sethi  %hi(0x12800), %g1
   12940:	82 10 61 98 	or  %g1, 0x198, %g1	! 12998 <get_interlaced_row>
   12944:	c2 24 e0 04 	st  %g1, [ %l3 + 4 ]
   12948:	c0 24 e1 70 	clr  [ %l3 + 0x170 ]
   1294c:	c2 06 20 1c 	ld  [ %i0 + 0x1c ], %g1
   12950:	82 00 60 07 	add  %g1, 7, %g1
   12954:	83 30 60 03 	srl  %g1, 3, %g1
   12958:	c2 24 e1 74 	st  %g1, [ %l3 + 0x174 ]
   1295c:	c4 06 20 1c 	ld  [ %i0 + 0x1c ], %g2
   12960:	84 00 a0 03 	add  %g2, 3, %g2
   12964:	85 30 a0 03 	srl  %g2, 3, %g2
   12968:	84 00 80 01 	add  %g2, %g1, %g2
   1296c:	c4 24 e1 78 	st  %g2, [ %l3 + 0x178 ]
   12970:	c2 06 20 1c 	ld  [ %i0 + 0x1c ], %g1
   12974:	82 00 60 01 	inc  %g1
   12978:	83 30 60 02 	srl  %g1, 2, %g1
   1297c:	82 00 40 02 	add  %g1, %g2, %g1
   12980:	c2 24 e1 7c 	st  %g1, [ %l3 + 0x17c ]
   12984:	90 10 00 18 	mov  %i0, %o0
   12988:	40 00 00 04 	call  12998 <get_interlaced_row>
   1298c:	92 10 00 19 	mov  %i1, %o1
   12990:	81 c7 e0 08 	ret 
   12994:	91 e8 00 08 	restore  %g0, %o0, %o0

00012998 <get_interlaced_row>:
   12998:	9d e3 bf 98 	save  %sp, -104, %sp
   1299c:	c2 06 61 70 	ld  [ %i1 + 0x170 ], %g1
   129a0:	82 08 60 07 	and  %g1, 7, %g1
   129a4:	80 a0 60 02 	cmp  %g1, 2
   129a8:	02 80 00 17 	be  12a04 <get_interlaced_row+0x6c>
   129ac:	e0 06 60 1c 	ld  [ %i1 + 0x1c ], %l0
   129b0:	80 a0 60 02 	cmp  %g1, 2
   129b4:	14 80 00 07 	bg  129d0 <get_interlaced_row+0x38>
   129b8:	80 a0 60 04 	cmp  %g1, 4
   129bc:	80 a0 60 00 	cmp  %g1, 0
   129c0:	02 80 00 0a 	be  129e8 <get_interlaced_row+0x50>
   129c4:	c2 06 61 70 	ld  [ %i1 + 0x170 ], %g1
   129c8:	10 80 00 14 	b  12a18 <get_interlaced_row+0x80>
   129cc:	95 30 60 01 	srl  %g1, 1, %o2
   129d0:	02 80 00 08 	be  129f0 <get_interlaced_row+0x58>
   129d4:	80 a0 60 06 	cmp  %g1, 6
   129d8:	02 80 00 0c 	be  12a08 <get_interlaced_row+0x70>
   129dc:	c2 06 61 70 	ld  [ %i1 + 0x170 ], %g1
   129e0:	10 80 00 0e 	b  12a18 <get_interlaced_row+0x80>
   129e4:	95 30 60 01 	srl  %g1, 1, %o2
   129e8:	10 80 00 0e 	b  12a20 <get_interlaced_row+0x88>
   129ec:	95 30 60 03 	srl  %g1, 3, %o2
   129f0:	c2 06 61 70 	ld  [ %i1 + 0x170 ], %g1
   129f4:	95 30 60 03 	srl  %g1, 3, %o2
   129f8:	c2 06 61 74 	ld  [ %i1 + 0x174 ], %g1
   129fc:	10 80 00 09 	b  12a20 <get_interlaced_row+0x88>
   12a00:	94 02 80 01 	add  %o2, %g1, %o2
   12a04:	c2 06 61 70 	ld  [ %i1 + 0x170 ], %g1
   12a08:	95 30 60 02 	srl  %g1, 2, %o2
   12a0c:	c2 06 61 78 	ld  [ %i1 + 0x178 ], %g1
   12a10:	10 80 00 04 	b  12a20 <get_interlaced_row+0x88>
   12a14:	94 02 80 01 	add  %o2, %g1, %o2
   12a18:	c2 06 61 7c 	ld  [ %i1 + 0x17c ], %g1
   12a1c:	94 02 80 01 	add  %o2, %g1, %o2
   12a20:	c2 06 20 04 	ld  [ %i0 + 4 ], %g1
   12a24:	c2 00 60 1c 	ld  [ %g1 + 0x1c ], %g1
   12a28:	90 10 00 18 	mov  %i0, %o0
   12a2c:	d2 06 61 6c 	ld  [ %i1 + 0x16c ], %o1
   12a30:	96 10 20 01 	mov  1, %o3
   12a34:	9f c0 40 00 	call  %g1
   12a38:	98 10 20 00 	clr  %o4
   12a3c:	c8 02 00 00 	ld  [ %o0 ], %g4
   12a40:	c2 06 60 10 	ld  [ %i1 + 0x10 ], %g1
   12a44:	d0 06 20 18 	ld  [ %i0 + 0x18 ], %o0
   12a48:	80 a2 20 00 	cmp  %o0, 0
   12a4c:	02 80 00 12 	be  12a94 <get_interlaced_row+0xfc>
   12a50:	c6 00 40 00 	ld  [ %g1 ], %g3
   12a54:	c4 09 00 00 	ldub  [ %g4 ], %g2
   12a58:	88 01 20 01 	inc  %g4
   12a5c:	c2 04 00 00 	ld  [ %l0 ], %g1
   12a60:	c2 08 40 02 	ldub  [ %g1 + %g2 ], %g1
   12a64:	c2 28 c0 00 	stb  %g1, [ %g3 ]
   12a68:	86 00 e0 01 	inc  %g3
   12a6c:	c2 04 20 04 	ld  [ %l0 + 4 ], %g1
   12a70:	c2 08 40 02 	ldub  [ %g1 + %g2 ], %g1
   12a74:	c2 28 c0 00 	stb  %g1, [ %g3 ]
   12a78:	86 00 e0 01 	inc  %g3
   12a7c:	c2 04 20 08 	ld  [ %l0 + 8 ], %g1
   12a80:	c2 08 40 02 	ldub  [ %g1 + %g2 ], %g1
   12a84:	c2 28 c0 00 	stb  %g1, [ %g3 ]
   12a88:	90 82 3f ff 	addcc  %o0, -1, %o0
   12a8c:	12 bf ff f2 	bne  12a54 <get_interlaced_row+0xbc>
   12a90:	86 00 e0 01 	inc  %g3
   12a94:	c2 06 61 70 	ld  [ %i1 + 0x170 ], %g1
   12a98:	82 00 60 01 	inc  %g1
   12a9c:	c2 26 61 70 	st  %g1, [ %i1 + 0x170 ]
   12aa0:	81 c7 e0 08 	ret 
   12aa4:	91 e8 20 01 	restore  %g0, 1, %o0

00012aa8 <finish_input_gif>:
   12aa8:	81 c3 e0 08 	retl 
   12aac:	01 00 00 00 	nop 

00012ab0 <jinit_read_gif>:
   12ab0:	9d e3 bf 98 	save  %sp, -104, %sp
   12ab4:	c2 06 20 04 	ld  [ %i0 + 4 ], %g1
   12ab8:	c2 00 40 00 	ld  [ %g1 ], %g1
   12abc:	90 10 00 18 	mov  %i0, %o0
   12ac0:	92 10 20 01 	mov  1, %o1
   12ac4:	9f c0 40 00 	call  %g1
   12ac8:	94 10 21 80 	mov  0x180, %o2
   12acc:	f0 22 20 18 	st  %i0, [ %o0 + 0x18 ]
   12ad0:	03 00 00 48 	sethi  %hi(0x12000), %g1
   12ad4:	82 10 63 ac 	or  %g1, 0x3ac, %g1	! 123ac <start_input_gif>
   12ad8:	c2 22 00 00 	st  %g1, [ %o0 ]
   12adc:	03 00 00 4a 	sethi  %hi(0x12800), %g1
   12ae0:	82 10 62 a8 	or  %g1, 0x2a8, %g1	! 12aa8 <finish_input_gif>
   12ae4:	c2 22 20 08 	st  %g1, [ %o0 + 8 ]
   12ae8:	81 c7 e0 08 	ret 
   12aec:	91 e8 00 08 	restore  %g0, %o0, %o0

00012af0 <read_byte>:
   12af0:	9d e3 bf 98 	save  %sp, -104, %sp
   12af4:	a0 10 00 18 	mov  %i0, %l0
   12af8:	40 00 83 30 	call  337b8 <_IO_getc@plt>
   12afc:	d0 06 20 0c 	ld  [ %i0 + 0xc ], %o0
   12b00:	80 a2 3f ff 	cmp  %o0, -1
   12b04:	12 80 00 0b 	bne  12b30 <read_byte+0x40>
   12b08:	b0 10 00 08 	mov  %o0, %i0
   12b0c:	c2 04 20 18 	ld  [ %l0 + 0x18 ], %g1
   12b10:	c4 00 40 00 	ld  [ %g1 ], %g2
   12b14:	82 10 20 2a 	mov  0x2a, %g1
   12b18:	c2 20 a0 14 	st  %g1, [ %g2 + 0x14 ]
   12b1c:	d0 04 20 18 	ld  [ %l0 + 0x18 ], %o0
   12b20:	c2 02 00 00 	ld  [ %o0 ], %g1
   12b24:	c2 00 40 00 	ld  [ %g1 ], %g1
   12b28:	9f c0 40 00 	call  %g1
   12b2c:	01 00 00 00 	nop 
   12b30:	81 c7 e0 08 	ret 
   12b34:	81 e8 00 00 	restore 

00012b38 <read_colormap>:
   12b38:	9d e3 bf 98 	save  %sp, -104, %sp
   12b3c:	80 a6 a0 18 	cmp  %i2, 0x18
   12b40:	02 80 00 0b 	be  12b6c <read_colormap+0x34>
   12b44:	b4 10 20 00 	clr  %i2
   12b48:	c2 06 20 18 	ld  [ %i0 + 0x18 ], %g1
   12b4c:	c4 00 40 00 	ld  [ %g1 ], %g2
   12b50:	82 10 24 08 	mov  0x408, %g1
   12b54:	c2 20 a0 14 	st  %g1, [ %g2 + 0x14 ]
   12b58:	d0 06 20 18 	ld  [ %i0 + 0x18 ], %o0
   12b5c:	c2 02 00 00 	ld  [ %o0 ], %g1
   12b60:	c2 00 40 00 	ld  [ %g1 ], %g1
   12b64:	9f c0 40 00 	call  %g1
   12b68:	01 00 00 00 	nop 
   12b6c:	80 a6 80 19 	cmp  %i2, %i1
   12b70:	16 80 00 15 	bge  12bc4 <read_colormap+0x8c>
   12b74:	01 00 00 00 	nop 
   12b78:	c2 06 20 1c 	ld  [ %i0 + 0x1c ], %g1
   12b7c:	e0 00 60 08 	ld  [ %g1 + 8 ], %l0
   12b80:	7f ff ff dc 	call  12af0 <read_byte>
   12b84:	90 10 00 18 	mov  %i0, %o0
   12b88:	d0 2c 00 1a 	stb  %o0, [ %l0 + %i2 ]
   12b8c:	c2 06 20 1c 	ld  [ %i0 + 0x1c ], %g1
   12b90:	e0 00 60 04 	ld  [ %g1 + 4 ], %l0
   12b94:	7f ff ff d7 	call  12af0 <read_byte>
   12b98:	90 10 00 18 	mov  %i0, %o0
   12b9c:	d0 2c 00 1a 	stb  %o0, [ %l0 + %i2 ]
   12ba0:	c2 06 20 1c 	ld  [ %i0 + 0x1c ], %g1
   12ba4:	e0 00 40 00 	ld  [ %g1 ], %l0
   12ba8:	7f ff ff d2 	call  12af0 <read_byte>
   12bac:	90 10 00 18 	mov  %i0, %o0
   12bb0:	d0 2c 00 1a 	stb  %o0, [ %l0 + %i2 ]
   12bb4:	b4 06 a0 01 	inc  %i2
   12bb8:	80 a6 80 19 	cmp  %i2, %i1
   12bbc:	26 bf ff f0 	bl,a   12b7c <read_colormap+0x44>
   12bc0:	c2 06 20 1c 	ld  [ %i0 + 0x1c ], %g1
   12bc4:	81 c7 e0 08 	ret 
   12bc8:	81 e8 00 00 	restore 

00012bcc <read_non_rle_pixel>:
   12bcc:	9d e3 bf 98 	save  %sp, -104, %sp
   12bd0:	e4 06 20 0c 	ld  [ %i0 + 0xc ], %l2
   12bd4:	c2 06 20 30 	ld  [ %i0 + 0x30 ], %g1
   12bd8:	80 a0 60 00 	cmp  %g1, 0
   12bdc:	04 80 00 0b 	ble  12c08 <read_non_rle_pixel+0x3c>
   12be0:	a2 10 20 00 	clr  %l1
   12be4:	a0 04 40 18 	add  %l1, %i0, %l0
   12be8:	40 00 82 f4 	call  337b8 <_IO_getc@plt>
   12bec:	90 10 00 12 	mov  %l2, %o0
   12bf0:	d0 2c 20 2c 	stb  %o0, [ %l0 + 0x2c ]
   12bf4:	a2 04 60 01 	inc  %l1
   12bf8:	c2 06 20 30 	ld  [ %i0 + 0x30 ], %g1
   12bfc:	80 a0 40 11 	cmp  %g1, %l1
   12c00:	14 bf ff fa 	bg  12be8 <read_non_rle_pixel+0x1c>
   12c04:	a0 04 40 18 	add  %l1, %i0, %l0
   12c08:	81 c7 e0 08 	ret 
   12c0c:	81 e8 00 00 	restore 

00012c10 <read_rle_pixel>:
   12c10:	9d e3 bf 98 	save  %sp, -104, %sp
   12c14:	c2 06 20 38 	ld  [ %i0 + 0x38 ], %g1
   12c18:	80 a0 60 00 	cmp  %g1, 0
   12c1c:	04 80 00 05 	ble  12c30 <read_rle_pixel+0x20>
   12c20:	e4 06 20 0c 	ld  [ %i0 + 0xc ], %l2
   12c24:	82 00 7f ff 	add  %g1, -1, %g1
   12c28:	10 80 00 1d 	b  12c9c <read_rle_pixel+0x8c>
   12c2c:	c2 26 20 38 	st  %g1, [ %i0 + 0x38 ]
   12c30:	c2 06 20 34 	ld  [ %i0 + 0x34 ], %g1
   12c34:	82 00 7f ff 	add  %g1, -1, %g1
   12c38:	80 a0 60 00 	cmp  %g1, 0
   12c3c:	16 80 00 0b 	bge  12c68 <read_rle_pixel+0x58>
   12c40:	c2 26 20 34 	st  %g1, [ %i0 + 0x34 ]
   12c44:	7f ff ff ab 	call  12af0 <read_byte>
   12c48:	90 10 00 18 	mov  %i0, %o0
   12c4c:	80 8a 20 80 	btst  0x80, %o0
   12c50:	02 80 00 05 	be  12c64 <read_rle_pixel+0x54>
   12c54:	82 0a 20 7f 	and  %o0, 0x7f, %g1
   12c58:	c2 26 20 38 	st  %g1, [ %i0 + 0x38 ]
   12c5c:	10 80 00 03 	b  12c68 <read_rle_pixel+0x58>
   12c60:	c0 26 20 34 	clr  [ %i0 + 0x34 ]
   12c64:	c2 26 20 34 	st  %g1, [ %i0 + 0x34 ]
   12c68:	c2 06 20 30 	ld  [ %i0 + 0x30 ], %g1
   12c6c:	80 a0 60 00 	cmp  %g1, 0
   12c70:	04 80 00 0b 	ble  12c9c <read_rle_pixel+0x8c>
   12c74:	a2 10 20 00 	clr  %l1
   12c78:	a0 04 40 18 	add  %l1, %i0, %l0
   12c7c:	40 00 82 cf 	call  337b8 <_IO_getc@plt>
   12c80:	90 10 00 12 	mov  %l2, %o0
   12c84:	d0 2c 20 2c 	stb  %o0, [ %l0 + 0x2c ]
   12c88:	a2 04 60 01 	inc  %l1
   12c8c:	c2 06 20 30 	ld  [ %i0 + 0x30 ], %g1
   12c90:	80 a0 40 11 	cmp  %g1, %l1
   12c94:	14 bf ff fa 	bg  12c7c <read_rle_pixel+0x6c>
   12c98:	a0 04 40 18 	add  %l1, %i0, %l0
   12c9c:	81 c7 e0 08 	ret 
   12ca0:	81 e8 00 00 	restore 

00012ca4 <get_8bit_gray_row>:
   12ca4:	9d e3 bf 98 	save  %sp, -104, %sp
   12ca8:	c2 06 60 10 	ld  [ %i1 + 0x10 ], %g1
   12cac:	f0 06 20 18 	ld  [ %i0 + 0x18 ], %i0
   12cb0:	80 a6 20 00 	cmp  %i0, 0
   12cb4:	02 80 00 0a 	be  12cdc <get_8bit_gray_row+0x38>
   12cb8:	e0 00 40 00 	ld  [ %g1 ], %l0
   12cbc:	c2 06 60 28 	ld  [ %i1 + 0x28 ], %g1
   12cc0:	9f c0 40 00 	call  %g1
   12cc4:	90 10 00 19 	mov  %i1, %o0
   12cc8:	c2 0e 60 2c 	ldub  [ %i1 + 0x2c ], %g1
   12ccc:	c2 2c 00 00 	stb  %g1, [ %l0 ]
   12cd0:	b0 86 3f ff 	addcc  %i0, -1, %i0
   12cd4:	12 bf ff fa 	bne  12cbc <get_8bit_gray_row+0x18>
   12cd8:	a0 04 20 01 	inc  %l0
   12cdc:	81 c7 e0 08 	ret 
   12ce0:	91 e8 20 01 	restore  %g0, 1, %o0

00012ce4 <get_8bit_row>:
   12ce4:	9d e3 bf 98 	save  %sp, -104, %sp
   12ce8:	e2 06 60 1c 	ld  [ %i1 + 0x1c ], %l1
   12cec:	c2 06 60 10 	ld  [ %i1 + 0x10 ], %g1
   12cf0:	f0 06 20 18 	ld  [ %i0 + 0x18 ], %i0
   12cf4:	80 a6 20 00 	cmp  %i0, 0
   12cf8:	02 80 00 14 	be  12d48 <get_8bit_row+0x64>
   12cfc:	e0 00 40 00 	ld  [ %g1 ], %l0
   12d00:	c2 06 60 28 	ld  [ %i1 + 0x28 ], %g1
   12d04:	9f c0 40 00 	call  %g1
   12d08:	90 10 00 19 	mov  %i1, %o0
   12d0c:	c4 0e 60 2c 	ldub  [ %i1 + 0x2c ], %g2
   12d10:	c2 04 40 00 	ld  [ %l1 ], %g1
   12d14:	c2 08 40 02 	ldub  [ %g1 + %g2 ], %g1
   12d18:	c2 2c 00 00 	stb  %g1, [ %l0 ]
   12d1c:	a0 04 20 01 	inc  %l0
   12d20:	c2 04 60 04 	ld  [ %l1 + 4 ], %g1
   12d24:	c2 08 40 02 	ldub  [ %g1 + %g2 ], %g1
   12d28:	c2 2c 00 00 	stb  %g1, [ %l0 ]
   12d2c:	a0 04 20 01 	inc  %l0
   12d30:	c2 04 60 08 	ld  [ %l1 + 8 ], %g1
   12d34:	c2 08 40 02 	ldub  [ %g1 + %g2 ], %g1
   12d38:	c2 2c 00 00 	stb  %g1, [ %l0 ]
   12d3c:	b0 86 3f ff 	addcc  %i0, -1, %i0
   12d40:	12 bf ff f0 	bne  12d00 <get_8bit_row+0x1c>
   12d44:	a0 04 20 01 	inc  %l0
   12d48:	81 c7 e0 08 	ret 
   12d4c:	91 e8 20 01 	restore  %g0, 1, %o0

00012d50 <get_16bit_row>:
   12d50:	9d e3 bf 98 	save  %sp, -104, %sp
   12d54:	c2 06 60 10 	ld  [ %i1 + 0x10 ], %g1
   12d58:	f0 06 20 18 	ld  [ %i0 + 0x18 ], %i0
   12d5c:	80 a6 20 00 	cmp  %i0, 0
   12d60:	02 80 00 19 	be  12dc4 <get_16bit_row+0x74>
   12d64:	e0 00 40 00 	ld  [ %g1 ], %l0
   12d68:	03 00 00 86 	sethi  %hi(0x21800), %g1
   12d6c:	a2 10 61 48 	or  %g1, 0x148, %l1	! 21948 <c5to8bits>
   12d70:	c2 06 60 28 	ld  [ %i1 + 0x28 ], %g1
   12d74:	9f c0 40 00 	call  %g1
   12d78:	90 10 00 19 	mov  %i1, %o0
   12d7c:	c4 0e 60 2c 	ldub  [ %i1 + 0x2c ], %g2
   12d80:	c2 0e 60 2d 	ldub  [ %i1 + 0x2d ], %g1
   12d84:	83 28 60 08 	sll  %g1, 8, %g1
   12d88:	84 00 80 01 	add  %g2, %g1, %g2
   12d8c:	82 08 a0 1f 	and  %g2, 0x1f, %g1
   12d90:	c2 0c 40 01 	ldub  [ %l1 + %g1 ], %g1
   12d94:	c2 2c 20 02 	stb  %g1, [ %l0 + 2 ]
   12d98:	85 38 a0 05 	sra  %g2, 5, %g2
   12d9c:	82 08 a0 1f 	and  %g2, 0x1f, %g1
   12da0:	c2 0c 40 01 	ldub  [ %l1 + %g1 ], %g1
   12da4:	c2 2c 20 01 	stb  %g1, [ %l0 + 1 ]
   12da8:	85 38 a0 05 	sra  %g2, 5, %g2
   12dac:	84 08 a0 1f 	and  %g2, 0x1f, %g2
   12db0:	c2 0c 40 02 	ldub  [ %l1 + %g2 ], %g1
   12db4:	c2 2c 00 00 	stb  %g1, [ %l0 ]
   12db8:	b0 86 3f ff 	addcc  %i0, -1, %i0
   12dbc:	12 bf ff ed 	bne  12d70 <get_16bit_row+0x20>
   12dc0:	a0 04 20 03 	add  %l0, 3, %l0
   12dc4:	81 c7 e0 08 	ret 
   12dc8:	91 e8 20 01 	restore  %g0, 1, %o0

00012dcc <get_24bit_row>:
   12dcc:	9d e3 bf 98 	save  %sp, -104, %sp
   12dd0:	c2 06 60 10 	ld  [ %i1 + 0x10 ], %g1
   12dd4:	f0 06 20 18 	ld  [ %i0 + 0x18 ], %i0
   12dd8:	80 a6 20 00 	cmp  %i0, 0
   12ddc:	02 80 00 10 	be  12e1c <get_24bit_row+0x50>
   12de0:	e0 00 40 00 	ld  [ %g1 ], %l0
   12de4:	c2 06 60 28 	ld  [ %i1 + 0x28 ], %g1
   12de8:	9f c0 40 00 	call  %g1
   12dec:	90 10 00 19 	mov  %i1, %o0
   12df0:	c2 0e 60 2e 	ldub  [ %i1 + 0x2e ], %g1
   12df4:	c2 2c 00 00 	stb  %g1, [ %l0 ]
   12df8:	a0 04 20 01 	inc  %l0
   12dfc:	c2 0e 60 2d 	ldub  [ %i1 + 0x2d ], %g1
   12e00:	c2 2c 00 00 	stb  %g1, [ %l0 ]
   12e04:	a0 04 20 01 	inc  %l0
   12e08:	c2 0e 60 2c 	ldub  [ %i1 + 0x2c ], %g1
   12e0c:	c2 2c 00 00 	stb  %g1, [ %l0 ]
   12e10:	b0 86 3f ff 	addcc  %i0, -1, %i0
   12e14:	12 bf ff f4 	bne  12de4 <get_24bit_row+0x18>
   12e18:	a0 04 20 01 	inc  %l0
   12e1c:	81 c7 e0 08 	ret 
   12e20:	91 e8 20 01 	restore  %g0, 1, %o0

00012e24 <get_memory_row>:
   12e24:	9d e3 bf 98 	save  %sp, -104, %sp
   12e28:	90 10 00 18 	mov  %i0, %o0
   12e2c:	d4 06 20 1c 	ld  [ %i0 + 0x1c ], %o2
   12e30:	c2 06 60 24 	ld  [ %i1 + 0x24 ], %g1
   12e34:	94 22 80 01 	sub  %o2, %g1, %o2
   12e38:	c2 06 20 04 	ld  [ %i0 + 4 ], %g1
   12e3c:	c2 00 60 1c 	ld  [ %g1 + 0x1c ], %g1
   12e40:	d2 06 60 20 	ld  [ %i1 + 0x20 ], %o1
   12e44:	94 02 bf ff 	add  %o2, -1, %o2
   12e48:	96 10 20 01 	mov  1, %o3
   12e4c:	9f c0 40 00 	call  %g1
   12e50:	98 10 20 00 	clr  %o4
   12e54:	d0 26 60 10 	st  %o0, [ %i1 + 0x10 ]
   12e58:	c2 06 60 24 	ld  [ %i1 + 0x24 ], %g1
   12e5c:	82 00 60 01 	inc  %g1
   12e60:	c2 26 60 24 	st  %g1, [ %i1 + 0x24 ]
   12e64:	81 c7 e0 08 	ret 
   12e68:	91 e8 20 01 	restore  %g0, 1, %o0

00012e6c <preload_image>:
   12e6c:	9d e3 bf 98 	save  %sp, -104, %sp
   12e70:	a2 10 00 19 	mov  %i1, %l1
   12e74:	e0 06 20 08 	ld  [ %i0 + 8 ], %l0
   12e78:	c2 06 20 1c 	ld  [ %i0 + 0x1c ], %g1
   12e7c:	80 a0 60 00 	cmp  %g1, 0
   12e80:	08 80 00 1d 	bleu  12ef4 <preload_image+0x88>
   12e84:	a4 10 20 00 	clr  %l2
   12e88:	80 a4 20 00 	cmp  %l0, 0
   12e8c:	22 80 00 09 	be,a   12eb0 <preload_image+0x44>
   12e90:	c2 06 20 04 	ld  [ %i0 + 4 ], %g1
   12e94:	e4 24 20 04 	st  %l2, [ %l0 + 4 ]
   12e98:	c2 06 20 1c 	ld  [ %i0 + 0x1c ], %g1
   12e9c:	c2 24 20 08 	st  %g1, [ %l0 + 8 ]
   12ea0:	c2 04 00 00 	ld  [ %l0 ], %g1
   12ea4:	9f c0 40 00 	call  %g1
   12ea8:	90 10 00 18 	mov  %i0, %o0
   12eac:	c2 06 20 04 	ld  [ %i0 + 4 ], %g1
   12eb0:	c2 00 60 1c 	ld  [ %g1 + 0x1c ], %g1
   12eb4:	90 10 00 18 	mov  %i0, %o0
   12eb8:	d2 04 60 20 	ld  [ %l1 + 0x20 ], %o1
   12ebc:	94 10 00 12 	mov  %l2, %o2
   12ec0:	96 10 20 01 	mov  1, %o3
   12ec4:	9f c0 40 00 	call  %g1
   12ec8:	98 10 20 01 	mov  1, %o4
   12ecc:	d0 24 60 10 	st  %o0, [ %l1 + 0x10 ]
   12ed0:	c2 04 60 3c 	ld  [ %l1 + 0x3c ], %g1
   12ed4:	90 10 00 18 	mov  %i0, %o0
   12ed8:	9f c0 40 00 	call  %g1
   12edc:	92 10 00 19 	mov  %i1, %o1
   12ee0:	a4 04 a0 01 	inc  %l2
   12ee4:	c2 06 20 1c 	ld  [ %i0 + 0x1c ], %g1
   12ee8:	80 a0 40 12 	cmp  %g1, %l2
   12eec:	18 bf ff e8 	bgu  12e8c <preload_image+0x20>
   12ef0:	80 a4 20 00 	cmp  %l0, 0
   12ef4:	80 a4 20 00 	cmp  %l0, 0
   12ef8:	02 80 00 06 	be  12f10 <preload_image+0xa4>
   12efc:	03 00 00 4b 	sethi  %hi(0x12c00), %g1
   12f00:	c2 04 20 14 	ld  [ %l0 + 0x14 ], %g1
   12f04:	82 00 60 01 	inc  %g1
   12f08:	c2 24 20 14 	st  %g1, [ %l0 + 0x14 ]
   12f0c:	03 00 00 4b 	sethi  %hi(0x12c00), %g1
   12f10:	82 10 62 24 	or  %g1, 0x224, %g1	! 12e24 <get_memory_row>
   12f14:	c2 24 60 04 	st  %g1, [ %l1 + 4 ]
   12f18:	c0 24 60 24 	clr  [ %l1 + 0x24 ]
   12f1c:	90 10 00 18 	mov  %i0, %o0
   12f20:	7f ff ff c1 	call  12e24 <get_memory_row>
   12f24:	92 10 00 19 	mov  %i1, %o1
   12f28:	81 c7 e0 08 	ret 
   12f2c:	91 e8 00 08 	restore  %g0, %o0, %o0

00012f30 <start_input_tga>:
   12f30:	9d e3 bf 80 	save  %sp, -128, %sp
   12f34:	90 07 bf e0 	add  %fp, -32, %o0
   12f38:	92 10 20 01 	mov  1, %o1
   12f3c:	94 10 20 12 	mov  0x12, %o2
   12f40:	40 00 81 fa 	call  33728 <fread@plt>
   12f44:	d6 06 60 0c 	ld  [ %i1 + 0xc ], %o3
   12f48:	80 a2 20 12 	cmp  %o0, 0x12
   12f4c:	02 80 00 08 	be  12f6c <start_input_tga+0x3c>
   12f50:	82 10 20 2a 	mov  0x2a, %g1
   12f54:	c4 06 00 00 	ld  [ %i0 ], %g2
   12f58:	c2 20 a0 14 	st  %g1, [ %g2 + 0x14 ]
   12f5c:	c2 06 00 00 	ld  [ %i0 ], %g1
   12f60:	c2 00 40 00 	ld  [ %g1 ], %g1
   12f64:	9f c0 40 00 	call  %g1
   12f68:	90 10 00 18 	mov  %i0, %o0
   12f6c:	c2 0f bf f0 	ldub  [ %fp + -16 ], %g1
   12f70:	80 a0 60 0f 	cmp  %g1, 0xf
   12f74:	12 80 00 05 	bne  12f88 <start_input_tga+0x58>
   12f78:	e2 0f bf e0 	ldub  [ %fp + -32 ], %l1
   12f7c:	82 10 20 10 	mov  0x10, %g1
   12f80:	c2 2f bf f0 	stb  %g1, [ %fp + -16 ]
   12f84:	e2 0f bf e0 	ldub  [ %fp + -32 ], %l1
   12f88:	ec 0f bf e1 	ldub  [ %fp + -31 ], %l6
   12f8c:	e0 0f bf e2 	ldub  [ %fp + -30 ], %l0
   12f90:	ea 0f bf e5 	ldub  [ %fp + -27 ], %l5
   12f94:	c2 0f bf e6 	ldub  [ %fp + -26 ], %g1
   12f98:	83 28 60 08 	sll  %g1, 8, %g1
   12f9c:	aa 05 40 01 	add  %l5, %g1, %l5
   12fa0:	e6 0f bf ec 	ldub  [ %fp + -20 ], %l3
   12fa4:	c2 0f bf ed 	ldub  [ %fp + -19 ], %g1
   12fa8:	83 28 60 08 	sll  %g1, 8, %g1
   12fac:	a6 04 c0 01 	add  %l3, %g1, %l3
   12fb0:	e8 0f bf ee 	ldub  [ %fp + -18 ], %l4
   12fb4:	c2 0f bf ef 	ldub  [ %fp + -17 ], %g1
   12fb8:	83 28 60 08 	sll  %g1, 8, %g1
   12fbc:	a8 05 00 01 	add  %l4, %g1, %l4
   12fc0:	c6 0f bf f0 	ldub  [ %fp + -16 ], %g3
   12fc4:	85 30 e0 03 	srl  %g3, 3, %g2
   12fc8:	c4 26 60 30 	st  %g2, [ %i1 + 0x30 ]
   12fcc:	c2 0f bf f1 	ldub  [ %fp + -15 ], %g1
   12fd0:	a5 30 60 05 	srl  %g1, 5, %l2
   12fd4:	a4 1c a0 01 	xor  %l2, 1, %l2
   12fd8:	a4 0c a0 01 	and  %l2, 1, %l2
   12fdc:	80 a5 a0 01 	cmp  %l6, 1
   12fe0:	14 80 00 0b 	bg  1300c <start_input_tga+0xdc>
   12fe4:	89 38 60 06 	sra  %g1, 6, %g4
   12fe8:	80 a0 a0 00 	cmp  %g2, 0
   12fec:	04 80 00 08 	ble  1300c <start_input_tga+0xdc>
   12ff0:	80 a0 a0 04 	cmp  %g2, 4
   12ff4:	34 80 00 07 	bg,a   13010 <start_input_tga+0xe0>
   12ff8:	c4 06 00 00 	ld  [ %i0 ], %g2
   12ffc:	82 08 e0 07 	and  %g3, 7, %g1
   13000:	80 90 40 04 	orcc  %g1, %g4, %g0
   13004:	02 80 00 0a 	be  1302c <start_input_tga+0xfc>
   13008:	80 a4 20 08 	cmp  %l0, 8
   1300c:	c4 06 00 00 	ld  [ %i0 ], %g2
   13010:	82 10 24 09 	mov  0x409, %g1
   13014:	c2 20 a0 14 	st  %g1, [ %g2 + 0x14 ]
   13018:	c2 06 00 00 	ld  [ %i0 ], %g1
   1301c:	c2 00 40 00 	ld  [ %g1 ], %g1
   13020:	9f c0 40 00 	call  %g1
   13024:	90 10 00 18 	mov  %i0, %o0
   13028:	80 a4 20 08 	cmp  %l0, 8
   1302c:	04 80 00 09 	ble  13050 <start_input_tga+0x120>
   13030:	03 00 00 4a 	sethi  %hi(0x12800), %g1
   13034:	03 00 00 4b 	sethi  %hi(0x12c00), %g1
   13038:	82 10 60 10 	or  %g1, 0x10, %g1	! 12c10 <read_rle_pixel>
   1303c:	c2 26 60 28 	st  %g1, [ %i1 + 0x28 ]
   13040:	c0 26 60 38 	clr  [ %i1 + 0x38 ]
   13044:	c0 26 60 34 	clr  [ %i1 + 0x34 ]
   13048:	10 80 00 04 	b  13058 <start_input_tga+0x128>
   1304c:	a0 04 3f f8 	add  %l0, -8, %l0
   13050:	82 10 63 cc 	or  %g1, 0x3cc, %g1
   13054:	c2 26 60 28 	st  %g1, [ %i1 + 0x28 ]
   13058:	ae 10 20 03 	mov  3, %l7
   1305c:	82 10 20 02 	mov  2, %g1
   13060:	80 a4 20 02 	cmp  %l0, 2
   13064:	02 80 00 2f 	be  13120 <start_input_tga+0x1f0>
   13068:	c2 26 20 24 	st  %g1, [ %i0 + 0x24 ]
   1306c:	80 a4 20 02 	cmp  %l0, 2
   13070:	14 80 00 07 	bg  1308c <start_input_tga+0x15c>
   13074:	80 a4 20 03 	cmp  %l0, 3
   13078:	80 a4 20 01 	cmp  %l0, 1
   1307c:	22 80 00 08 	be,a   1309c <start_input_tga+0x16c>
   13080:	c2 06 60 30 	ld  [ %i1 + 0x30 ], %g1
   13084:	10 80 00 70 	b  13244 <start_input_tga+0x314>
   13088:	c4 06 00 00 	ld  [ %i0 ], %g2
   1308c:	22 80 00 51 	be,a   131d0 <start_input_tga+0x2a0>
   13090:	ae 10 20 01 	mov  1, %l7
   13094:	10 80 00 6c 	b  13244 <start_input_tga+0x314>
   13098:	c4 06 00 00 	ld  [ %i0 ], %g2
   1309c:	82 18 60 01 	xor  %g1, 1, %g1
   130a0:	80 a0 00 01 	cmp  %g0, %g1
   130a4:	84 60 3f ff 	subx  %g0, -1, %g2
   130a8:	82 1d a0 01 	xor  %l6, 1, %g1
   130ac:	80 a0 00 01 	cmp  %g0, %g1
   130b0:	82 60 3f ff 	subx  %g0, -1, %g1
   130b4:	80 88 80 01 	btst  %g2, %g1
   130b8:	02 80 00 05 	be  130cc <start_input_tga+0x19c>
   130bc:	03 00 00 4b 	sethi  %hi(0x12c00), %g1
   130c0:	82 10 60 e4 	or  %g1, 0xe4, %g1	! 12ce4 <get_8bit_row>
   130c4:	10 80 00 09 	b  130e8 <start_input_tga+0x1b8>
   130c8:	c2 26 60 3c 	st  %g1, [ %i1 + 0x3c ]
   130cc:	c4 06 00 00 	ld  [ %i0 ], %g2
   130d0:	82 10 24 09 	mov  0x409, %g1
   130d4:	c2 20 a0 14 	st  %g1, [ %g2 + 0x14 ]
   130d8:	c2 06 00 00 	ld  [ %i0 ], %g1
   130dc:	c2 00 40 00 	ld  [ %g1 ], %g1
   130e0:	9f c0 40 00 	call  %g1
   130e4:	90 10 00 18 	mov  %i0, %o0
   130e8:	c4 06 00 00 	ld  [ %i0 ], %g2
   130ec:	82 10 24 0d 	mov  0x40d, %g1
   130f0:	c2 20 a0 14 	st  %g1, [ %g2 + 0x14 ]
   130f4:	c2 06 00 00 	ld  [ %i0 ], %g1
   130f8:	e6 20 60 18 	st  %l3, [ %g1 + 0x18 ]
   130fc:	c2 06 00 00 	ld  [ %i0 ], %g1
   13100:	e8 20 60 1c 	st  %l4, [ %g1 + 0x1c ]
   13104:	c2 06 00 00 	ld  [ %i0 ], %g1
   13108:	c2 00 60 04 	ld  [ %g1 + 4 ], %g1
   1310c:	90 10 00 18 	mov  %i0, %o0
   13110:	9f c0 40 00 	call  %g1
   13114:	92 10 20 01 	mov  1, %o1
   13118:	10 80 00 52 	b  13260 <start_input_tga+0x330>
   1311c:	80 a4 a0 00 	cmp  %l2, 0
   13120:	c2 06 60 30 	ld  [ %i1 + 0x30 ], %g1
   13124:	80 a0 60 03 	cmp  %g1, 3
   13128:	22 80 00 10 	be,a   13168 <start_input_tga+0x238>
   1312c:	03 00 00 4b 	sethi  %hi(0x12c00), %g1
   13130:	14 80 00 07 	bg  1314c <start_input_tga+0x21c>
   13134:	80 a0 60 04 	cmp  %g1, 4
   13138:	80 a0 60 02 	cmp  %g1, 2
   1313c:	02 80 00 08 	be  1315c <start_input_tga+0x22c>
   13140:	03 00 00 4b 	sethi  %hi(0x12c00), %g1
   13144:	10 80 00 0f 	b  13180 <start_input_tga+0x250>
   13148:	c4 06 00 00 	ld  [ %i0 ], %g2
   1314c:	02 80 00 0a 	be  13174 <start_input_tga+0x244>
   13150:	03 00 00 4b 	sethi  %hi(0x12c00), %g1
   13154:	10 80 00 0b 	b  13180 <start_input_tga+0x250>
   13158:	c4 06 00 00 	ld  [ %i0 ], %g2
   1315c:	82 10 61 50 	or  %g1, 0x150, %g1
   13160:	10 80 00 0e 	b  13198 <start_input_tga+0x268>
   13164:	c2 26 60 3c 	st  %g1, [ %i1 + 0x3c ]
   13168:	82 10 61 cc 	or  %g1, 0x1cc, %g1
   1316c:	10 80 00 0b 	b  13198 <start_input_tga+0x268>
   13170:	c2 26 60 3c 	st  %g1, [ %i1 + 0x3c ]
   13174:	82 10 61 cc 	or  %g1, 0x1cc, %g1
   13178:	10 80 00 08 	b  13198 <start_input_tga+0x268>
   1317c:	c2 26 60 3c 	st  %g1, [ %i1 + 0x3c ]
   13180:	82 10 24 09 	mov  0x409, %g1
   13184:	c2 20 a0 14 	st  %g1, [ %g2 + 0x14 ]
   13188:	c2 06 00 00 	ld  [ %i0 ], %g1
   1318c:	c2 00 40 00 	ld  [ %g1 ], %g1
   13190:	9f c0 40 00 	call  %g1
   13194:	90 10 00 18 	mov  %i0, %o0
   13198:	c4 06 00 00 	ld  [ %i0 ], %g2
   1319c:	82 10 24 0b 	mov  0x40b, %g1
   131a0:	c2 20 a0 14 	st  %g1, [ %g2 + 0x14 ]
   131a4:	c2 06 00 00 	ld  [ %i0 ], %g1
   131a8:	e6 20 60 18 	st  %l3, [ %g1 + 0x18 ]
   131ac:	c2 06 00 00 	ld  [ %i0 ], %g1
   131b0:	e8 20 60 1c 	st  %l4, [ %g1 + 0x1c ]
   131b4:	c2 06 00 00 	ld  [ %i0 ], %g1
   131b8:	c2 00 60 04 	ld  [ %g1 + 4 ], %g1
   131bc:	90 10 00 18 	mov  %i0, %o0
   131c0:	9f c0 40 00 	call  %g1
   131c4:	92 10 20 01 	mov  1, %o1
   131c8:	10 80 00 26 	b  13260 <start_input_tga+0x330>
   131cc:	80 a4 a0 00 	cmp  %l2, 0
   131d0:	ee 26 20 24 	st  %l7, [ %i0 + 0x24 ]
   131d4:	c2 06 60 30 	ld  [ %i1 + 0x30 ], %g1
   131d8:	80 a0 60 01 	cmp  %g1, 1
   131dc:	32 80 00 06 	bne,a   131f4 <start_input_tga+0x2c4>
   131e0:	c4 06 00 00 	ld  [ %i0 ], %g2
   131e4:	03 00 00 4b 	sethi  %hi(0x12c00), %g1
   131e8:	82 10 60 a4 	or  %g1, 0xa4, %g1	! 12ca4 <get_8bit_gray_row>
   131ec:	10 80 00 08 	b  1320c <start_input_tga+0x2dc>
   131f0:	c2 26 60 3c 	st  %g1, [ %i1 + 0x3c ]
   131f4:	82 10 24 09 	mov  0x409, %g1
   131f8:	c2 20 a0 14 	st  %g1, [ %g2 + 0x14 ]
   131fc:	c2 06 00 00 	ld  [ %i0 ], %g1
   13200:	c2 00 40 00 	ld  [ %g1 ], %g1
   13204:	9f c0 40 00 	call  %g1
   13208:	90 10 00 18 	mov  %i0, %o0
   1320c:	c4 06 00 00 	ld  [ %i0 ], %g2
   13210:	82 10 24 0c 	mov  0x40c, %g1
   13214:	c2 20 a0 14 	st  %g1, [ %g2 + 0x14 ]
   13218:	c2 06 00 00 	ld  [ %i0 ], %g1
   1321c:	e6 20 60 18 	st  %l3, [ %g1 + 0x18 ]
   13220:	c2 06 00 00 	ld  [ %i0 ], %g1
   13224:	e8 20 60 1c 	st  %l4, [ %g1 + 0x1c ]
   13228:	c2 06 00 00 	ld  [ %i0 ], %g1
   1322c:	c2 00 60 04 	ld  [ %g1 + 4 ], %g1
   13230:	90 10 00 18 	mov  %i0, %o0
   13234:	9f c0 40 00 	call  %g1
   13238:	92 10 20 01 	mov  1, %o1
   1323c:	10 80 00 09 	b  13260 <start_input_tga+0x330>
   13240:	80 a4 a0 00 	cmp  %l2, 0
   13244:	82 10 24 09 	mov  0x409, %g1
   13248:	c2 20 a0 14 	st  %g1, [ %g2 + 0x14 ]
   1324c:	c2 06 00 00 	ld  [ %i0 ], %g1
   13250:	c2 00 40 00 	ld  [ %g1 ], %g1
   13254:	9f c0 40 00 	call  %g1
   13258:	90 10 00 18 	mov  %i0, %o0
   1325c:	80 a4 a0 00 	cmp  %l2, 0
   13260:	22 80 00 19 	be,a   132c4 <start_input_tga+0x394>
   13264:	c0 26 60 20 	clr  [ %i1 + 0x20 ]
   13268:	c2 06 20 04 	ld  [ %i0 + 4 ], %g1
   1326c:	c2 00 60 10 	ld  [ %g1 + 0x10 ], %g1
   13270:	90 10 00 18 	mov  %i0, %o0
   13274:	92 10 20 01 	mov  1, %o1
   13278:	94 10 20 00 	clr  %o2
   1327c:	96 5c c0 17 	smul  %l3, %l7, %o3
   13280:	98 10 00 14 	mov  %l4, %o4
   13284:	9f c0 40 00 	call  %g1
   13288:	9a 10 20 01 	mov  1, %o5
   1328c:	d0 26 60 20 	st  %o0, [ %i1 + 0x20 ]
   13290:	c4 06 20 08 	ld  [ %i0 + 8 ], %g2
   13294:	80 a0 a0 00 	cmp  %g2, 0
   13298:	02 80 00 06 	be  132b0 <start_input_tga+0x380>
   1329c:	82 10 20 01 	mov  1, %g1
   132a0:	c2 00 a0 18 	ld  [ %g2 + 0x18 ], %g1
   132a4:	82 00 60 01 	inc  %g1
   132a8:	c2 20 a0 18 	st  %g1, [ %g2 + 0x18 ]
   132ac:	82 10 20 01 	mov  1, %g1
   132b0:	c2 26 60 14 	st  %g1, [ %i1 + 0x14 ]
   132b4:	03 00 00 4b 	sethi  %hi(0x12c00), %g1
   132b8:	82 10 62 6c 	or  %g1, 0x26c, %g1	! 12e6c <preload_image>
   132bc:	10 80 00 0e 	b  132f4 <start_input_tga+0x3c4>
   132c0:	c2 26 60 04 	st  %g1, [ %i1 + 4 ]
   132c4:	c2 06 20 04 	ld  [ %i0 + 4 ], %g1
   132c8:	c2 00 60 08 	ld  [ %g1 + 8 ], %g1
   132cc:	90 10 00 18 	mov  %i0, %o0
   132d0:	92 10 20 01 	mov  1, %o1
   132d4:	94 5c c0 17 	smul  %l3, %l7, %o2
   132d8:	9f c0 40 00 	call  %g1
   132dc:	96 10 20 01 	mov  1, %o3
   132e0:	d0 26 60 10 	st  %o0, [ %i1 + 0x10 ]
   132e4:	82 10 20 01 	mov  1, %g1
   132e8:	c2 26 60 14 	st  %g1, [ %i1 + 0x14 ]
   132ec:	c2 06 60 3c 	ld  [ %i1 + 0x3c ], %g1
   132f0:	c2 26 60 04 	st  %g1, [ %i1 + 4 ]
   132f4:	a2 04 7f ff 	add  %l1, -1, %l1
   132f8:	80 a4 7f ff 	cmp  %l1, -1
   132fc:	02 80 00 08 	be  1331c <start_input_tga+0x3ec>
   13300:	80 a5 60 00 	cmp  %l5, 0
   13304:	7f ff fd fb 	call  12af0 <read_byte>
   13308:	90 10 00 19 	mov  %i1, %o0
   1330c:	a2 04 7f ff 	add  %l1, -1, %l1
   13310:	80 a4 7f ff 	cmp  %l1, -1
   13314:	12 bf ff fc 	bne  13304 <start_input_tga+0x3d4>
   13318:	80 a5 60 00 	cmp  %l5, 0
   1331c:	02 80 00 20 	be  1339c <start_input_tga+0x46c>
   13320:	80 a5 a0 00 	cmp  %l6, 0
   13324:	80 a5 61 00 	cmp  %l5, 0x100
   13328:	18 80 00 08 	bgu  13348 <start_input_tga+0x418>
   1332c:	c4 0f bf e3 	ldub  [ %fp + -29 ], %g2
   13330:	c2 0f bf e4 	ldub  [ %fp + -28 ], %g1
   13334:	83 28 60 08 	sll  %g1, 8, %g1
   13338:	84 00 80 01 	add  %g2, %g1, %g2
   1333c:	80 a0 a0 00 	cmp  %g2, 0
   13340:	22 80 00 0a 	be,a   13368 <start_input_tga+0x438>
   13344:	c2 06 20 04 	ld  [ %i0 + 4 ], %g1
   13348:	c4 06 00 00 	ld  [ %i0 ], %g2
   1334c:	82 10 24 08 	mov  0x408, %g1
   13350:	c2 20 a0 14 	st  %g1, [ %g2 + 0x14 ]
   13354:	c2 06 00 00 	ld  [ %i0 ], %g1
   13358:	c2 00 40 00 	ld  [ %g1 ], %g1
   1335c:	9f c0 40 00 	call  %g1
   13360:	90 10 00 18 	mov  %i0, %o0
   13364:	c2 06 20 04 	ld  [ %i0 + 4 ], %g1
   13368:	c2 00 60 08 	ld  [ %g1 + 8 ], %g1
   1336c:	90 10 00 18 	mov  %i0, %o0
   13370:	92 10 20 01 	mov  1, %o1
   13374:	94 10 00 15 	mov  %l5, %o2
   13378:	9f c0 40 00 	call  %g1
   1337c:	96 10 20 03 	mov  3, %o3
   13380:	d0 26 60 1c 	st  %o0, [ %i1 + 0x1c ]
   13384:	90 10 00 19 	mov  %i1, %o0
   13388:	92 10 00 15 	mov  %l5, %o1
   1338c:	7f ff fd eb 	call  12b38 <read_colormap>
   13390:	d4 0f bf e7 	ldub  [ %fp + -25 ], %o2
   13394:	10 80 00 0d 	b  133c8 <start_input_tga+0x498>
   13398:	ee 26 20 20 	st  %l7, [ %i0 + 0x20 ]
   1339c:	22 80 00 0a 	be,a   133c4 <start_input_tga+0x494>
   133a0:	c0 26 60 1c 	clr  [ %i1 + 0x1c ]
   133a4:	c4 06 00 00 	ld  [ %i0 ], %g2
   133a8:	82 10 24 09 	mov  0x409, %g1
   133ac:	c2 20 a0 14 	st  %g1, [ %g2 + 0x14 ]
   133b0:	c2 06 00 00 	ld  [ %i0 ], %g1
   133b4:	c2 00 40 00 	ld  [ %g1 ], %g1
   133b8:	9f c0 40 00 	call  %g1
   133bc:	90 10 00 18 	mov  %i0, %o0
   133c0:	c0 26 60 1c 	clr  [ %i1 + 0x1c ]
   133c4:	ee 26 20 20 	st  %l7, [ %i0 + 0x20 ]
   133c8:	82 10 20 08 	mov  8, %g1
   133cc:	c2 26 20 30 	st  %g1, [ %i0 + 0x30 ]
   133d0:	e6 26 20 18 	st  %l3, [ %i0 + 0x18 ]
   133d4:	e8 26 20 1c 	st  %l4, [ %i0 + 0x1c ]
   133d8:	81 c7 e0 08 	ret 
   133dc:	81 e8 00 00 	restore 

000133e0 <finish_input_tga>:
   133e0:	81 c3 e0 08 	retl 
   133e4:	01 00 00 00 	nop 

000133e8 <jinit_read_targa>:
   133e8:	9d e3 bf 98 	save  %sp, -104, %sp
   133ec:	c2 06 20 04 	ld  [ %i0 + 4 ], %g1
   133f0:	c2 00 40 00 	ld  [ %g1 ], %g1
   133f4:	90 10 00 18 	mov  %i0, %o0
   133f8:	92 10 20 01 	mov  1, %o1
   133fc:	9f c0 40 00 	call  %g1
   13400:	94 10 20 40 	mov  0x40, %o2
   13404:	f0 22 20 18 	st  %i0, [ %o0 + 0x18 ]
   13408:	03 00 00 4b 	sethi  %hi(0x12c00), %g1
   1340c:	82 10 63 30 	or  %g1, 0x330, %g1	! 12f30 <start_input_tga>
   13410:	c2 22 00 00 	st  %g1, [ %o0 ]
   13414:	03 00 00 4c 	sethi  %hi(0x13000), %g1
   13418:	82 10 63 e0 	or  %g1, 0x3e0, %g1	! 133e0 <finish_input_tga>
   1341c:	c2 22 20 08 	st  %g1, [ %o0 + 8 ]
   13420:	81 c7 e0 08 	ret 
   13424:	91 e8 00 08 	restore  %g0, %o0, %o0

00013428 <read_byte>:
   13428:	9d e3 bf 98 	save  %sp, -104, %sp
   1342c:	a0 10 00 18 	mov  %i0, %l0
   13430:	40 00 80 e2 	call  337b8 <_IO_getc@plt>
   13434:	d0 06 20 0c 	ld  [ %i0 + 0xc ], %o0
   13438:	80 a2 3f ff 	cmp  %o0, -1
   1343c:	12 80 00 0b 	bne  13468 <read_byte+0x40>
   13440:	b0 10 00 08 	mov  %o0, %i0
   13444:	c2 04 20 18 	ld  [ %l0 + 0x18 ], %g1
   13448:	c4 00 40 00 	ld  [ %g1 ], %g2
   1344c:	82 10 20 2a 	mov  0x2a, %g1
   13450:	c2 20 a0 14 	st  %g1, [ %g2 + 0x14 ]
   13454:	d0 04 20 18 	ld  [ %l0 + 0x18 ], %o0
   13458:	c2 02 00 00 	ld  [ %o0 ], %g1
   1345c:	c2 00 40 00 	ld  [ %g1 ], %g1
   13460:	9f c0 40 00 	call  %g1
   13464:	01 00 00 00 	nop 
   13468:	81 c7 e0 08 	ret 
   1346c:	81 e8 00 00 	restore 

00013470 <read_colormap>:
   13470:	9d e3 bf 98 	save  %sp, -104, %sp
   13474:	80 a6 a0 03 	cmp  %i2, 3
   13478:	02 80 00 06 	be  13490 <read_colormap+0x20>
   1347c:	80 a6 a0 04 	cmp  %i2, 4
   13480:	22 80 00 1c 	be,a   134f0 <read_colormap+0x80>
   13484:	b4 10 20 00 	clr  %i2
   13488:	10 80 00 33 	b  13554 <read_colormap+0xe4>
   1348c:	c2 06 20 18 	ld  [ %i0 + 0x18 ], %g1
   13490:	b4 10 20 00 	clr  %i2
   13494:	80 a6 80 19 	cmp  %i2, %i1
   13498:	16 80 00 37 	bge  13574 <read_colormap+0x104>
   1349c:	01 00 00 00 	nop 
   134a0:	c2 06 20 1c 	ld  [ %i0 + 0x1c ], %g1
   134a4:	e0 00 60 08 	ld  [ %g1 + 8 ], %l0
   134a8:	7f ff ff e0 	call  13428 <read_byte>
   134ac:	90 10 00 18 	mov  %i0, %o0
   134b0:	d0 2c 00 1a 	stb  %o0, [ %l0 + %i2 ]
   134b4:	c2 06 20 1c 	ld  [ %i0 + 0x1c ], %g1
   134b8:	e0 00 60 04 	ld  [ %g1 + 4 ], %l0
   134bc:	7f ff ff db 	call  13428 <read_byte>
   134c0:	90 10 00 18 	mov  %i0, %o0
   134c4:	d0 2c 00 1a 	stb  %o0, [ %l0 + %i2 ]
   134c8:	c2 06 20 1c 	ld  [ %i0 + 0x1c ], %g1
   134cc:	e0 00 40 00 	ld  [ %g1 ], %l0
   134d0:	7f ff ff d6 	call  13428 <read_byte>
   134d4:	90 10 00 18 	mov  %i0, %o0
   134d8:	d0 2c 00 1a 	stb  %o0, [ %l0 + %i2 ]
   134dc:	b4 06 a0 01 	inc  %i2
   134e0:	80 a6 80 19 	cmp  %i2, %i1
   134e4:	26 bf ff f0 	bl,a   134a4 <read_colormap+0x34>
   134e8:	c2 06 20 1c 	ld  [ %i0 + 0x1c ], %g1
   134ec:	30 80 00 22 	b,a   13574 <read_colormap+0x104>
   134f0:	80 a6 80 19 	cmp  %i2, %i1
   134f4:	16 80 00 20 	bge  13574 <read_colormap+0x104>
   134f8:	01 00 00 00 	nop 
   134fc:	c2 06 20 1c 	ld  [ %i0 + 0x1c ], %g1
   13500:	e0 00 60 08 	ld  [ %g1 + 8 ], %l0
   13504:	7f ff ff c9 	call  13428 <read_byte>
   13508:	90 10 00 18 	mov  %i0, %o0
   1350c:	d0 2c 00 1a 	stb  %o0, [ %l0 + %i2 ]
   13510:	c2 06 20 1c 	ld  [ %i0 + 0x1c ], %g1
   13514:	e0 00 60 04 	ld  [ %g1 + 4 ], %l0
   13518:	7f ff ff c4 	call  13428 <read_byte>
   1351c:	90 10 00 18 	mov  %i0, %o0
   13520:	d0 2c 00 1a 	stb  %o0, [ %l0 + %i2 ]
   13524:	c2 06 20 1c 	ld  [ %i0 + 0x1c ], %g1
   13528:	e0 00 40 00 	ld  [ %g1 ], %l0
   1352c:	7f ff ff bf 	call  13428 <read_byte>
   13530:	90 10 00 18 	mov  %i0, %o0
   13534:	d0 2c 00 1a 	stb  %o0, [ %l0 + %i2 ]
   13538:	7f ff ff bc 	call  13428 <read_byte>
   1353c:	90 10 00 18 	mov  %i0, %o0
   13540:	b4 06 a0 01 	inc  %i2
   13544:	80 a6 80 19 	cmp  %i2, %i1
   13548:	26 bf ff ee 	bl,a   13500 <read_colormap+0x90>
   1354c:	c2 06 20 1c 	ld  [ %i0 + 0x1c ], %g1
   13550:	30 80 00 09 	b,a   13574 <read_colormap+0x104>
   13554:	c4 00 40 00 	ld  [ %g1 ], %g2
   13558:	82 10 23 e9 	mov  0x3e9, %g1
   1355c:	c2 20 a0 14 	st  %g1, [ %g2 + 0x14 ]
   13560:	d0 06 20 18 	ld  [ %i0 + 0x18 ], %o0
   13564:	c2 02 00 00 	ld  [ %o0 ], %g1
   13568:	c2 00 40 00 	ld  [ %g1 ], %g1
   1356c:	9f c0 40 00 	call  %g1
   13570:	01 00 00 00 	nop 
   13574:	01 00 00 00 	nop 
   13578:	81 c7 e0 08 	ret 
   1357c:	81 e8 00 00 	restore 

00013580 <get_8bit_row>:
   13580:	9d e3 bf 98 	save  %sp, -104, %sp
   13584:	e0 06 60 1c 	ld  [ %i1 + 0x1c ], %l0
   13588:	d4 06 60 24 	ld  [ %i1 + 0x24 ], %o2
   1358c:	94 02 bf ff 	add  %o2, -1, %o2
   13590:	d4 26 60 24 	st  %o2, [ %i1 + 0x24 ]
   13594:	c2 06 20 04 	ld  [ %i0 + 4 ], %g1
   13598:	c2 00 60 1c 	ld  [ %g1 + 0x1c ], %g1
   1359c:	90 10 00 18 	mov  %i0, %o0
   135a0:	d2 06 60 20 	ld  [ %i1 + 0x20 ], %o1
   135a4:	96 10 20 01 	mov  1, %o3
   135a8:	9f c0 40 00 	call  %g1
   135ac:	98 10 20 00 	clr  %o4
   135b0:	d0 02 00 00 	ld  [ %o0 ], %o0
   135b4:	c2 06 60 10 	ld  [ %i1 + 0x10 ], %g1
   135b8:	c8 06 20 18 	ld  [ %i0 + 0x18 ], %g4
   135bc:	80 a1 20 00 	cmp  %g4, 0
   135c0:	02 80 00 12 	be  13608 <get_8bit_row+0x88>
   135c4:	c6 00 40 00 	ld  [ %g1 ], %g3
   135c8:	c4 0a 00 00 	ldub  [ %o0 ], %g2
   135cc:	90 02 20 01 	inc  %o0
   135d0:	c2 04 00 00 	ld  [ %l0 ], %g1
   135d4:	c2 08 40 02 	ldub  [ %g1 + %g2 ], %g1
   135d8:	c2 28 c0 00 	stb  %g1, [ %g3 ]
   135dc:	86 00 e0 01 	inc  %g3
   135e0:	c2 04 20 04 	ld  [ %l0 + 4 ], %g1
   135e4:	c2 08 40 02 	ldub  [ %g1 + %g2 ], %g1
   135e8:	c2 28 c0 00 	stb  %g1, [ %g3 ]
   135ec:	86 00 e0 01 	inc  %g3
   135f0:	c2 04 20 08 	ld  [ %l0 + 8 ], %g1
   135f4:	c2 08 40 02 	ldub  [ %g1 + %g2 ], %g1
   135f8:	c2 28 c0 00 	stb  %g1, [ %g3 ]
   135fc:	88 81 3f ff 	addcc  %g4, -1, %g4
   13600:	12 bf ff f2 	bne  135c8 <get_8bit_row+0x48>
   13604:	86 00 e0 01 	inc  %g3
   13608:	81 c7 e0 08 	ret 
   1360c:	91 e8 20 01 	restore  %g0, 1, %o0

00013610 <get_24bit_row>:
   13610:	9d e3 bf 98 	save  %sp, -104, %sp
   13614:	d4 06 60 24 	ld  [ %i1 + 0x24 ], %o2
   13618:	94 02 bf ff 	add  %o2, -1, %o2
   1361c:	d4 26 60 24 	st  %o2, [ %i1 + 0x24 ]
   13620:	c2 06 20 04 	ld  [ %i0 + 4 ], %g1
   13624:	c2 00 60 1c 	ld  [ %g1 + 0x1c ], %g1
   13628:	90 10 00 18 	mov  %i0, %o0
   1362c:	d2 06 60 20 	ld  [ %i1 + 0x20 ], %o1
   13630:	96 10 20 01 	mov  1, %o3
   13634:	9f c0 40 00 	call  %g1
   13638:	98 10 20 00 	clr  %o4
   1363c:	d0 02 00 00 	ld  [ %o0 ], %o0
   13640:	c2 06 60 10 	ld  [ %i1 + 0x10 ], %g1
   13644:	c6 06 20 18 	ld  [ %i0 + 0x18 ], %g3
   13648:	80 a0 e0 00 	cmp  %g3, 0
   1364c:	02 80 00 0e 	be  13684 <get_24bit_row+0x74>
   13650:	c4 00 40 00 	ld  [ %g1 ], %g2
   13654:	c2 0a 00 00 	ldub  [ %o0 ], %g1
   13658:	90 02 20 01 	inc  %o0
   1365c:	c2 28 a0 02 	stb  %g1, [ %g2 + 2 ]
   13660:	c2 0a 00 00 	ldub  [ %o0 ], %g1
   13664:	90 02 20 01 	inc  %o0
   13668:	c2 28 a0 01 	stb  %g1, [ %g2 + 1 ]
   1366c:	c2 0a 00 00 	ldub  [ %o0 ], %g1
   13670:	90 02 20 01 	inc  %o0
   13674:	c2 28 80 00 	stb  %g1, [ %g2 ]
   13678:	86 80 ff ff 	addcc  %g3, -1, %g3
   1367c:	12 bf ff f6 	bne  13654 <get_24bit_row+0x44>
   13680:	84 00 a0 03 	add  %g2, 3, %g2
   13684:	81 c7 e0 08 	ret 
   13688:	91 e8 20 01 	restore  %g0, 1, %o0

0001368c <preload_image>:
   1368c:	9d e3 bf 98 	save  %sp, -104, %sp
   13690:	aa 10 00 19 	mov  %i1, %l5
   13694:	e8 06 60 0c 	ld  [ %i1 + 0xc ], %l4
   13698:	e6 06 20 08 	ld  [ %i0 + 8 ], %l3
   1369c:	c2 06 20 1c 	ld  [ %i0 + 0x1c ], %g1
   136a0:	80 a0 60 00 	cmp  %g1, 0
   136a4:	08 80 00 2c 	bleu  13754 <preload_image+0xc8>
   136a8:	ac 10 20 00 	clr  %l6
   136ac:	80 a4 e0 00 	cmp  %l3, 0
   136b0:	22 80 00 09 	be,a   136d4 <preload_image+0x48>
   136b4:	c2 06 20 04 	ld  [ %i0 + 4 ], %g1
   136b8:	ec 24 e0 04 	st  %l6, [ %l3 + 4 ]
   136bc:	c2 06 20 1c 	ld  [ %i0 + 0x1c ], %g1
   136c0:	c2 24 e0 08 	st  %g1, [ %l3 + 8 ]
   136c4:	c2 04 c0 00 	ld  [ %l3 ], %g1
   136c8:	9f c0 40 00 	call  %g1
   136cc:	90 10 00 18 	mov  %i0, %o0
   136d0:	c2 06 20 04 	ld  [ %i0 + 4 ], %g1
   136d4:	c2 00 60 1c 	ld  [ %g1 + 0x1c ], %g1
   136d8:	90 10 00 18 	mov  %i0, %o0
   136dc:	d2 05 60 20 	ld  [ %l5 + 0x20 ], %o1
   136e0:	94 10 00 16 	mov  %l6, %o2
   136e4:	96 10 20 01 	mov  1, %o3
   136e8:	9f c0 40 00 	call  %g1
   136ec:	98 10 20 01 	mov  1, %o4
   136f0:	e0 05 60 28 	ld  [ %l5 + 0x28 ], %l0
   136f4:	80 a4 20 00 	cmp  %l0, 0
   136f8:	02 80 00 12 	be  13740 <preload_image+0xb4>
   136fc:	e2 02 00 00 	ld  [ %o0 ], %l1
   13700:	ae 10 20 2a 	mov  0x2a, %l7
   13704:	40 00 80 2d 	call  337b8 <_IO_getc@plt>
   13708:	90 10 00 14 	mov  %l4, %o0
   1370c:	80 a2 3f ff 	cmp  %o0, -1
   13710:	12 80 00 08 	bne  13730 <preload_image+0xa4>
   13714:	a4 10 00 08 	mov  %o0, %l2
   13718:	c2 06 00 00 	ld  [ %i0 ], %g1
   1371c:	ee 20 60 14 	st  %l7, [ %g1 + 0x14 ]
   13720:	c2 06 00 00 	ld  [ %i0 ], %g1
   13724:	c2 00 40 00 	ld  [ %g1 ], %g1
   13728:	9f c0 40 00 	call  %g1
   1372c:	90 10 00 18 	mov  %i0, %o0
   13730:	e4 2c 40 00 	stb  %l2, [ %l1 ]
   13734:	a0 84 3f ff 	addcc  %l0, -1, %l0
   13738:	12 bf ff f3 	bne  13704 <preload_image+0x78>
   1373c:	a2 04 60 01 	inc  %l1
   13740:	ac 05 a0 01 	inc  %l6
   13744:	c2 06 20 1c 	ld  [ %i0 + 0x1c ], %g1
   13748:	80 a0 40 16 	cmp  %g1, %l6
   1374c:	18 bf ff d9 	bgu  136b0 <preload_image+0x24>
   13750:	80 a4 e0 00 	cmp  %l3, 0
   13754:	80 a4 e0 00 	cmp  %l3, 0
   13758:	22 80 00 06 	be,a   13770 <preload_image+0xe4>
   1375c:	c2 05 60 2c 	ld  [ %l5 + 0x2c ], %g1
   13760:	c2 04 e0 14 	ld  [ %l3 + 0x14 ], %g1
   13764:	82 00 60 01 	inc  %g1
   13768:	c2 24 e0 14 	st  %g1, [ %l3 + 0x14 ]
   1376c:	c2 05 60 2c 	ld  [ %l5 + 0x2c ], %g1
   13770:	80 a0 60 08 	cmp  %g1, 8
   13774:	02 80 00 06 	be  1378c <preload_image+0x100>
   13778:	80 a0 60 18 	cmp  %g1, 0x18
   1377c:	02 80 00 08 	be  1379c <preload_image+0x110>
   13780:	03 00 00 4d 	sethi  %hi(0x13400), %g1
   13784:	10 80 00 09 	b  137a8 <preload_image+0x11c>
   13788:	c4 06 00 00 	ld  [ %i0 ], %g2
   1378c:	03 00 00 4d 	sethi  %hi(0x13400), %g1
   13790:	82 10 61 80 	or  %g1, 0x180, %g1	! 13580 <get_8bit_row>
   13794:	10 80 00 0b 	b  137c0 <preload_image+0x134>
   13798:	c2 25 60 04 	st  %g1, [ %l5 + 4 ]
   1379c:	82 10 62 10 	or  %g1, 0x210, %g1
   137a0:	10 80 00 08 	b  137c0 <preload_image+0x134>
   137a4:	c2 25 60 04 	st  %g1, [ %l5 + 4 ]
   137a8:	82 10 23 ea 	mov  0x3ea, %g1
   137ac:	c2 20 a0 14 	st  %g1, [ %g2 + 0x14 ]
   137b0:	c2 06 00 00 	ld  [ %i0 ], %g1
   137b4:	c2 00 40 00 	ld  [ %g1 ], %g1
   137b8:	9f c0 40 00 	call  %g1
   137bc:	90 10 00 18 	mov  %i0, %o0
   137c0:	c2 06 20 1c 	ld  [ %i0 + 0x1c ], %g1
   137c4:	c2 25 60 24 	st  %g1, [ %l5 + 0x24 ]
   137c8:	c2 05 60 04 	ld  [ %l5 + 4 ], %g1
   137cc:	90 10 00 18 	mov  %i0, %o0
   137d0:	9f c0 40 00 	call  %g1
   137d4:	92 10 00 19 	mov  %i1, %o1
   137d8:	81 c7 e0 08 	ret 
   137dc:	91 e8 00 08 	restore  %g0, %o0, %o0

000137e0 <start_input_bmp>:
   137e0:	9d e3 bf 48 	save  %sp, -184, %sp
   137e4:	aa 10 20 00 	clr  %l5
   137e8:	ba 10 20 00 	clr  %i5
   137ec:	ae 10 20 00 	clr  %l7
   137f0:	b8 10 20 00 	clr  %i4
   137f4:	90 07 bf e8 	add  %fp, -24, %o0
   137f8:	92 10 20 01 	mov  1, %o1
   137fc:	94 10 20 0e 	mov  0xe, %o2
   13800:	40 00 7f ca 	call  33728 <fread@plt>
   13804:	d6 06 60 0c 	ld  [ %i1 + 0xc ], %o3
   13808:	80 a2 20 0e 	cmp  %o0, 0xe
   1380c:	02 80 00 08 	be  1382c <start_input_bmp+0x4c>
   13810:	82 10 20 2a 	mov  0x2a, %g1
   13814:	c4 06 00 00 	ld  [ %i0 ], %g2
   13818:	c2 20 a0 14 	st  %g1, [ %g2 + 0x14 ]
   1381c:	c2 06 00 00 	ld  [ %i0 ], %g1
   13820:	c2 00 40 00 	ld  [ %g1 ], %g1
   13824:	9f c0 40 00 	call  %g1
   13828:	90 10 00 18 	mov  %i0, %o0
   1382c:	c2 0f bf e8 	ldub  [ %fp + -24 ], %g1
   13830:	c4 0f bf e9 	ldub  [ %fp + -23 ], %g2
   13834:	85 28 a0 08 	sll  %g2, 8, %g2
   13838:	82 00 40 02 	add  %g1, %g2, %g1
   1383c:	05 00 00 13 	sethi  %hi(0x4c00), %g2
   13840:	84 10 a1 42 	or  %g2, 0x142, %g2	! 4d42 <_init-0xb98e>
   13844:	80 a0 40 02 	cmp  %g1, %g2
   13848:	02 80 00 08 	be  13868 <start_input_bmp+0x88>
   1384c:	82 10 23 ef 	mov  0x3ef, %g1
   13850:	c4 06 00 00 	ld  [ %i0 ], %g2
   13854:	c2 20 a0 14 	st  %g1, [ %g2 + 0x14 ]
   13858:	c2 06 00 00 	ld  [ %i0 ], %g1
   1385c:	c2 00 40 00 	ld  [ %g1 ], %g1
   13860:	9f c0 40 00 	call  %g1
   13864:	90 10 00 18 	mov  %i0, %o0
   13868:	e8 0f bf f2 	ldub  [ %fp + -14 ], %l4
   1386c:	c2 0f bf f3 	ldub  [ %fp + -13 ], %g1
   13870:	83 28 60 08 	sll  %g1, 8, %g1
   13874:	a8 05 00 01 	add  %l4, %g1, %l4
   13878:	c2 0f bf f4 	ldub  [ %fp + -12 ], %g1
   1387c:	83 28 60 10 	sll  %g1, 0x10, %g1
   13880:	a8 05 00 01 	add  %l4, %g1, %l4
   13884:	c2 0f bf f5 	ldub  [ %fp + -11 ], %g1
   13888:	83 28 60 18 	sll  %g1, 0x18, %g1
   1388c:	a8 05 00 01 	add  %l4, %g1, %l4
   13890:	90 07 bf a8 	add  %fp, -88, %o0
   13894:	92 10 20 01 	mov  1, %o1
   13898:	94 10 20 04 	mov  4, %o2
   1389c:	40 00 7f a3 	call  33728 <fread@plt>
   138a0:	d6 06 60 0c 	ld  [ %i1 + 0xc ], %o3
   138a4:	80 a2 20 04 	cmp  %o0, 4
   138a8:	02 80 00 08 	be  138c8 <start_input_bmp+0xe8>
   138ac:	82 10 20 2a 	mov  0x2a, %g1
   138b0:	c4 06 00 00 	ld  [ %i0 ], %g2
   138b4:	c2 20 a0 14 	st  %g1, [ %g2 + 0x14 ]
   138b8:	c2 06 00 00 	ld  [ %i0 ], %g1
   138bc:	c2 00 40 00 	ld  [ %g1 ], %g1
   138c0:	9f c0 40 00 	call  %g1
   138c4:	90 10 00 18 	mov  %i0, %o0
   138c8:	e2 0f bf a8 	ldub  [ %fp + -88 ], %l1
   138cc:	c2 0f bf a9 	ldub  [ %fp + -87 ], %g1
   138d0:	83 28 60 08 	sll  %g1, 8, %g1
   138d4:	a2 04 40 01 	add  %l1, %g1, %l1
   138d8:	c2 0f bf aa 	ldub  [ %fp + -86 ], %g1
   138dc:	83 28 60 10 	sll  %g1, 0x10, %g1
   138e0:	a2 04 40 01 	add  %l1, %g1, %l1
   138e4:	c2 0f bf ab 	ldub  [ %fp + -85 ], %g1
   138e8:	83 28 60 18 	sll  %g1, 0x18, %g1
   138ec:	a2 04 40 01 	add  %l1, %g1, %l1
   138f0:	82 04 7f f4 	add  %l1, -12, %g1
   138f4:	80 a0 60 34 	cmp  %g1, 0x34
   138f8:	08 80 00 0a 	bleu  13920 <start_input_bmp+0x140>
   138fc:	a0 04 7f fc 	add  %l1, -4, %l0
   13900:	c4 06 00 00 	ld  [ %i0 ], %g2
   13904:	82 10 23 eb 	mov  0x3eb, %g1
   13908:	c2 20 a0 14 	st  %g1, [ %g2 + 0x14 ]
   1390c:	c2 06 00 00 	ld  [ %i0 ], %g1
   13910:	c2 00 40 00 	ld  [ %g1 ], %g1
   13914:	9f c0 40 00 	call  %g1
   13918:	90 10 00 18 	mov  %i0, %o0
   1391c:	a0 04 7f fc 	add  %l1, -4, %l0
   13920:	90 07 bf ac 	add  %fp, -84, %o0
   13924:	92 10 20 01 	mov  1, %o1
   13928:	94 10 00 10 	mov  %l0, %o2
   1392c:	40 00 7f 7f 	call  33728 <fread@plt>
   13930:	d6 06 60 0c 	ld  [ %i1 + 0xc ], %o3
   13934:	80 a2 00 10 	cmp  %o0, %l0
   13938:	02 80 00 08 	be  13958 <start_input_bmp+0x178>
   1393c:	82 10 20 2a 	mov  0x2a, %g1
   13940:	c4 06 00 00 	ld  [ %i0 ], %g2
   13944:	c2 20 a0 14 	st  %g1, [ %g2 + 0x14 ]
   13948:	c2 06 00 00 	ld  [ %i0 ], %g1
   1394c:	c2 00 40 00 	ld  [ %g1 ], %g1
   13950:	9f c0 40 00 	call  %g1
   13954:	90 10 00 18 	mov  %i0, %o0
   13958:	80 a4 60 28 	cmp  %l1, 0x28
   1395c:	22 80 00 50 	be,a   13a9c <start_input_bmp+0x2bc>
   13960:	ea 0f bf ac 	ldub  [ %fp + -84 ], %l5
   13964:	14 80 00 07 	bg  13980 <start_input_bmp+0x1a0>
   13968:	80 a4 60 40 	cmp  %l1, 0x40
   1396c:	80 a4 60 0c 	cmp  %l1, 0xc
   13970:	22 80 00 08 	be,a   13990 <start_input_bmp+0x1b0>
   13974:	ea 0f bf ac 	ldub  [ %fp + -84 ], %l5
   13978:	10 80 00 e0 	b  13cf8 <start_input_bmp+0x518>
   1397c:	c4 06 00 00 	ld  [ %i0 ], %g2
   13980:	22 80 00 47 	be,a   13a9c <start_input_bmp+0x2bc>
   13984:	ea 0f bf ac 	ldub  [ %fp + -84 ], %l5
   13988:	10 80 00 dc 	b  13cf8 <start_input_bmp+0x518>
   1398c:	c4 06 00 00 	ld  [ %i0 ], %g2
   13990:	c2 0f bf ad 	ldub  [ %fp + -83 ], %g1
   13994:	83 28 60 08 	sll  %g1, 8, %g1
   13998:	aa 05 40 01 	add  %l5, %g1, %l5
   1399c:	fa 0f bf ae 	ldub  [ %fp + -82 ], %i5
   139a0:	c2 0f bf af 	ldub  [ %fp + -81 ], %g1
   139a4:	83 28 60 08 	sll  %g1, 8, %g1
   139a8:	ba 07 40 01 	add  %i5, %g1, %i5
   139ac:	ec 0f bf b0 	ldub  [ %fp + -80 ], %l6
   139b0:	c2 0f bf b1 	ldub  [ %fp + -79 ], %g1
   139b4:	83 28 60 08 	sll  %g1, 8, %g1
   139b8:	ac 05 80 01 	add  %l6, %g1, %l6
   139bc:	c4 0f bf b2 	ldub  [ %fp + -78 ], %g2
   139c0:	c2 0f bf b3 	ldub  [ %fp + -77 ], %g1
   139c4:	83 28 60 08 	sll  %g1, 8, %g1
   139c8:	84 00 80 01 	add  %g2, %g1, %g2
   139cc:	80 a0 a0 08 	cmp  %g2, 8
   139d0:	02 80 00 07 	be  139ec <start_input_bmp+0x20c>
   139d4:	c4 26 60 2c 	st  %g2, [ %i1 + 0x2c ]
   139d8:	80 a0 a0 18 	cmp  %g2, 0x18
   139dc:	02 80 00 13 	be  13a28 <start_input_bmp+0x248>
   139e0:	c4 06 00 00 	ld  [ %i0 ], %g2
   139e4:	10 80 00 1e 	b  13a5c <start_input_bmp+0x27c>
   139e8:	82 10 23 ea 	mov  0x3ea, %g1
   139ec:	b8 10 20 03 	mov  3, %i4
   139f0:	c4 06 00 00 	ld  [ %i0 ], %g2
   139f4:	82 10 23 f3 	mov  0x3f3, %g1
   139f8:	c2 20 a0 14 	st  %g1, [ %g2 + 0x14 ]
   139fc:	c2 06 00 00 	ld  [ %i0 ], %g1
   13a00:	ea 20 60 18 	st  %l5, [ %g1 + 0x18 ]
   13a04:	c2 06 00 00 	ld  [ %i0 ], %g1
   13a08:	fa 20 60 1c 	st  %i5, [ %g1 + 0x1c ]
   13a0c:	c2 06 00 00 	ld  [ %i0 ], %g1
   13a10:	c2 00 60 04 	ld  [ %g1 + 4 ], %g1
   13a14:	90 10 00 18 	mov  %i0, %o0
   13a18:	9f c0 40 00 	call  %g1
   13a1c:	92 10 20 01 	mov  1, %o1
   13a20:	10 80 00 15 	b  13a74 <start_input_bmp+0x294>
   13a24:	80 a5 a0 01 	cmp  %l6, 1
   13a28:	82 10 23 f2 	mov  0x3f2, %g1
   13a2c:	c2 20 a0 14 	st  %g1, [ %g2 + 0x14 ]
   13a30:	c2 06 00 00 	ld  [ %i0 ], %g1
   13a34:	ea 20 60 18 	st  %l5, [ %g1 + 0x18 ]
   13a38:	c2 06 00 00 	ld  [ %i0 ], %g1
   13a3c:	fa 20 60 1c 	st  %i5, [ %g1 + 0x1c ]
   13a40:	c2 06 00 00 	ld  [ %i0 ], %g1
   13a44:	c2 00 60 04 	ld  [ %g1 + 4 ], %g1
   13a48:	90 10 00 18 	mov  %i0, %o0
   13a4c:	9f c0 40 00 	call  %g1
   13a50:	92 10 20 01 	mov  1, %o1
   13a54:	10 80 00 08 	b  13a74 <start_input_bmp+0x294>
   13a58:	80 a5 a0 01 	cmp  %l6, 1
   13a5c:	c2 20 a0 14 	st  %g1, [ %g2 + 0x14 ]
   13a60:	c2 06 00 00 	ld  [ %i0 ], %g1
   13a64:	c2 00 40 00 	ld  [ %g1 ], %g1
   13a68:	9f c0 40 00 	call  %g1
   13a6c:	90 10 00 18 	mov  %i0, %o0
   13a70:	80 a5 a0 01 	cmp  %l6, 1
   13a74:	02 80 00 a7 	be  13d10 <start_input_bmp+0x530>
   13a78:	82 10 23 ec 	mov  0x3ec, %g1
   13a7c:	c4 06 00 00 	ld  [ %i0 ], %g2
   13a80:	c2 20 a0 14 	st  %g1, [ %g2 + 0x14 ]
   13a84:	c2 06 00 00 	ld  [ %i0 ], %g1
   13a88:	c2 00 40 00 	ld  [ %g1 ], %g1
   13a8c:	9f c0 40 00 	call  %g1
   13a90:	90 10 00 18 	mov  %i0, %o0
   13a94:	10 80 00 a0 	b  13d14 <start_input_bmp+0x534>
   13a98:	a0 25 00 11 	sub  %l4, %l1, %l0
   13a9c:	c2 0f bf ad 	ldub  [ %fp + -83 ], %g1
   13aa0:	83 28 60 08 	sll  %g1, 8, %g1
   13aa4:	aa 05 40 01 	add  %l5, %g1, %l5
   13aa8:	c2 0f bf ae 	ldub  [ %fp + -82 ], %g1
   13aac:	83 28 60 10 	sll  %g1, 0x10, %g1
   13ab0:	aa 05 40 01 	add  %l5, %g1, %l5
   13ab4:	c2 0f bf af 	ldub  [ %fp + -81 ], %g1
   13ab8:	83 28 60 18 	sll  %g1, 0x18, %g1
   13abc:	aa 05 40 01 	add  %l5, %g1, %l5
   13ac0:	fa 0f bf b0 	ldub  [ %fp + -80 ], %i5
   13ac4:	c2 0f bf b1 	ldub  [ %fp + -79 ], %g1
   13ac8:	83 28 60 08 	sll  %g1, 8, %g1
   13acc:	ba 07 40 01 	add  %i5, %g1, %i5
   13ad0:	c2 0f bf b2 	ldub  [ %fp + -78 ], %g1
   13ad4:	83 28 60 10 	sll  %g1, 0x10, %g1
   13ad8:	ba 07 40 01 	add  %i5, %g1, %i5
   13adc:	c2 0f bf b3 	ldub  [ %fp + -77 ], %g1
   13ae0:	83 28 60 18 	sll  %g1, 0x18, %g1
   13ae4:	ba 07 40 01 	add  %i5, %g1, %i5
   13ae8:	ec 0f bf b4 	ldub  [ %fp + -76 ], %l6
   13aec:	c2 0f bf b5 	ldub  [ %fp + -75 ], %g1
   13af0:	83 28 60 08 	sll  %g1, 8, %g1
   13af4:	ac 05 80 01 	add  %l6, %g1, %l6
   13af8:	c4 0f bf b6 	ldub  [ %fp + -74 ], %g2
   13afc:	c2 0f bf b7 	ldub  [ %fp + -73 ], %g1
   13b00:	83 28 60 08 	sll  %g1, 8, %g1
   13b04:	84 00 80 01 	add  %g2, %g1, %g2
   13b08:	c4 26 60 2c 	st  %g2, [ %i1 + 0x2c ]
   13b0c:	e6 0f bf b8 	ldub  [ %fp + -72 ], %l3
   13b10:	c2 0f bf b9 	ldub  [ %fp + -71 ], %g1
   13b14:	83 28 60 08 	sll  %g1, 8, %g1
   13b18:	a6 04 c0 01 	add  %l3, %g1, %l3
   13b1c:	c2 0f bf ba 	ldub  [ %fp + -70 ], %g1
   13b20:	83 28 60 10 	sll  %g1, 0x10, %g1
   13b24:	a6 04 c0 01 	add  %l3, %g1, %l3
   13b28:	c2 0f bf bb 	ldub  [ %fp + -69 ], %g1
   13b2c:	83 28 60 18 	sll  %g1, 0x18, %g1
   13b30:	a6 04 c0 01 	add  %l3, %g1, %l3
   13b34:	e4 0f bf c0 	ldub  [ %fp + -64 ], %l2
   13b38:	c2 0f bf c1 	ldub  [ %fp + -63 ], %g1
   13b3c:	83 28 60 08 	sll  %g1, 8, %g1
   13b40:	a4 04 80 01 	add  %l2, %g1, %l2
   13b44:	c2 0f bf c2 	ldub  [ %fp + -62 ], %g1
   13b48:	83 28 60 10 	sll  %g1, 0x10, %g1
   13b4c:	a4 04 80 01 	add  %l2, %g1, %l2
   13b50:	c2 0f bf c3 	ldub  [ %fp + -61 ], %g1
   13b54:	83 28 60 18 	sll  %g1, 0x18, %g1
   13b58:	a4 04 80 01 	add  %l2, %g1, %l2
   13b5c:	e0 0f bf c4 	ldub  [ %fp + -60 ], %l0
   13b60:	c2 0f bf c5 	ldub  [ %fp + -59 ], %g1
   13b64:	83 28 60 08 	sll  %g1, 8, %g1
   13b68:	a0 04 00 01 	add  %l0, %g1, %l0
   13b6c:	c2 0f bf c6 	ldub  [ %fp + -58 ], %g1
   13b70:	83 28 60 10 	sll  %g1, 0x10, %g1
   13b74:	a0 04 00 01 	add  %l0, %g1, %l0
   13b78:	c2 0f bf c7 	ldub  [ %fp + -57 ], %g1
   13b7c:	83 28 60 18 	sll  %g1, 0x18, %g1
   13b80:	a0 04 00 01 	add  %l0, %g1, %l0
   13b84:	ee 0f bf c8 	ldub  [ %fp + -56 ], %l7
   13b88:	c2 0f bf c9 	ldub  [ %fp + -55 ], %g1
   13b8c:	83 28 60 08 	sll  %g1, 8, %g1
   13b90:	ae 05 c0 01 	add  %l7, %g1, %l7
   13b94:	c2 0f bf ca 	ldub  [ %fp + -54 ], %g1
   13b98:	83 28 60 10 	sll  %g1, 0x10, %g1
   13b9c:	ae 05 c0 01 	add  %l7, %g1, %l7
   13ba0:	c2 0f bf cb 	ldub  [ %fp + -53 ], %g1
   13ba4:	83 28 60 18 	sll  %g1, 0x18, %g1
   13ba8:	80 a0 a0 08 	cmp  %g2, 8
   13bac:	02 80 00 07 	be  13bc8 <start_input_bmp+0x3e8>
   13bb0:	ae 05 c0 01 	add  %l7, %g1, %l7
   13bb4:	80 a0 a0 18 	cmp  %g2, 0x18
   13bb8:	02 80 00 13 	be  13c04 <start_input_bmp+0x424>
   13bbc:	c4 06 00 00 	ld  [ %i0 ], %g2
   13bc0:	10 80 00 1e 	b  13c38 <start_input_bmp+0x458>
   13bc4:	82 10 23 ea 	mov  0x3ea, %g1
   13bc8:	b8 10 20 04 	mov  4, %i4
   13bcc:	c4 06 00 00 	ld  [ %i0 ], %g2
   13bd0:	82 10 23 f1 	mov  0x3f1, %g1
   13bd4:	c2 20 a0 14 	st  %g1, [ %g2 + 0x14 ]
   13bd8:	c2 06 00 00 	ld  [ %i0 ], %g1
   13bdc:	ea 20 60 18 	st  %l5, [ %g1 + 0x18 ]
   13be0:	c2 06 00 00 	ld  [ %i0 ], %g1
   13be4:	fa 20 60 1c 	st  %i5, [ %g1 + 0x1c ]
   13be8:	c2 06 00 00 	ld  [ %i0 ], %g1
   13bec:	c2 00 60 04 	ld  [ %g1 + 4 ], %g1
   13bf0:	90 10 00 18 	mov  %i0, %o0
   13bf4:	9f c0 40 00 	call  %g1
   13bf8:	92 10 20 01 	mov  1, %o1
   13bfc:	10 80 00 15 	b  13c50 <start_input_bmp+0x470>
   13c00:	80 a5 a0 01 	cmp  %l6, 1
   13c04:	82 10 23 f0 	mov  0x3f0, %g1
   13c08:	c2 20 a0 14 	st  %g1, [ %g2 + 0x14 ]
   13c0c:	c2 06 00 00 	ld  [ %i0 ], %g1
   13c10:	ea 20 60 18 	st  %l5, [ %g1 + 0x18 ]
   13c14:	c2 06 00 00 	ld  [ %i0 ], %g1
   13c18:	fa 20 60 1c 	st  %i5, [ %g1 + 0x1c ]
   13c1c:	c2 06 00 00 	ld  [ %i0 ], %g1
   13c20:	c2 00 60 04 	ld  [ %g1 + 4 ], %g1
   13c24:	90 10 00 18 	mov  %i0, %o0
   13c28:	9f c0 40 00 	call  %g1
   13c2c:	92 10 20 01 	mov  1, %o1
   13c30:	10 80 00 08 	b  13c50 <start_input_bmp+0x470>
   13c34:	80 a5 a0 01 	cmp  %l6, 1
   13c38:	c2 20 a0 14 	st  %g1, [ %g2 + 0x14 ]
   13c3c:	c2 06 00 00 	ld  [ %i0 ], %g1
   13c40:	c2 00 40 00 	ld  [ %g1 ], %g1
   13c44:	9f c0 40 00 	call  %g1
   13c48:	90 10 00 18 	mov  %i0, %o0
   13c4c:	80 a5 a0 01 	cmp  %l6, 1
   13c50:	02 80 00 08 	be  13c70 <start_input_bmp+0x490>
   13c54:	82 10 23 ec 	mov  0x3ec, %g1
   13c58:	c4 06 00 00 	ld  [ %i0 ], %g2
   13c5c:	c2 20 a0 14 	st  %g1, [ %g2 + 0x14 ]
   13c60:	c2 06 00 00 	ld  [ %i0 ], %g1
   13c64:	c2 00 40 00 	ld  [ %g1 ], %g1
   13c68:	9f c0 40 00 	call  %g1
   13c6c:	90 10 00 18 	mov  %i0, %o0
   13c70:	80 a4 e0 00 	cmp  %l3, 0
   13c74:	02 80 00 0a 	be  13c9c <start_input_bmp+0x4bc>
   13c78:	85 3c a0 1f 	sra  %l2, 0x1f, %g2
   13c7c:	c4 06 00 00 	ld  [ %i0 ], %g2
   13c80:	82 10 23 ee 	mov  0x3ee, %g1
   13c84:	c2 20 a0 14 	st  %g1, [ %g2 + 0x14 ]
   13c88:	c2 06 00 00 	ld  [ %i0 ], %g1
   13c8c:	c2 00 40 00 	ld  [ %g1 ], %g1
   13c90:	9f c0 40 00 	call  %g1
   13c94:	90 10 00 18 	mov  %i0, %o0
   13c98:	85 3c a0 1f 	sra  %l2, 0x1f, %g2
   13c9c:	84 20 80 12 	sub  %g2, %l2, %g2
   13ca0:	83 3c 20 1f 	sra  %l0, 0x1f, %g1
   13ca4:	82 20 40 10 	sub  %g1, %l0, %g1
   13ca8:	80 88 40 02 	btst  %g1, %g2
   13cac:	36 80 00 1a 	bge,a   13d14 <start_input_bmp+0x534>
   13cb0:	a0 25 00 11 	sub  %l4, %l1, %l0
   13cb4:	03 14 7a e1 	sethi  %hi(0x51eb8400), %g1
   13cb8:	82 10 61 1f 	or  %g1, 0x11f, %g1	! 51eb851f <_end+0x51e84d1f>
   13cbc:	80 5c 80 01 	smul  %l2, %g1, %g0
   13cc0:	85 40 00 00 	rd  %y, %g2
   13cc4:	85 38 a0 05 	sra  %g2, 5, %g2
   13cc8:	87 3c a0 1f 	sra  %l2, 0x1f, %g3
   13ccc:	84 20 80 03 	sub  %g2, %g3, %g2
   13cd0:	c4 36 20 ce 	sth  %g2, [ %i0 + 0xce ]
   13cd4:	80 5c 00 01 	smul  %l0, %g1, %g0
   13cd8:	83 40 00 00 	rd  %y, %g1
   13cdc:	83 38 60 05 	sra  %g1, 5, %g1
   13ce0:	85 3c 20 1f 	sra  %l0, 0x1f, %g2
   13ce4:	82 20 40 02 	sub  %g1, %g2, %g1
   13ce8:	c2 36 20 d0 	sth  %g1, [ %i0 + 0xd0 ]
   13cec:	82 10 20 02 	mov  2, %g1
   13cf0:	10 80 00 08 	b  13d10 <start_input_bmp+0x530>
   13cf4:	c2 2e 20 cc 	stb  %g1, [ %i0 + 0xcc ]
   13cf8:	82 10 23 eb 	mov  0x3eb, %g1
   13cfc:	c2 20 a0 14 	st  %g1, [ %g2 + 0x14 ]
   13d00:	c2 06 00 00 	ld  [ %i0 ], %g1
   13d04:	c2 00 40 00 	ld  [ %g1 ], %g1
   13d08:	9f c0 40 00 	call  %g1
   13d0c:	90 10 00 18 	mov  %i0, %o0
   13d10:	a0 25 00 11 	sub  %l4, %l1, %l0
   13d14:	80 a7 20 00 	cmp  %i4, 0
   13d18:	04 80 00 1e 	ble  13d90 <start_input_bmp+0x5b0>
   13d1c:	a0 04 3f f2 	add  %l0, -14, %l0
   13d20:	80 a5 e0 00 	cmp  %l7, 0
   13d24:	14 80 00 04 	bg  13d34 <start_input_bmp+0x554>
   13d28:	80 a5 e1 00 	cmp  %l7, 0x100
   13d2c:	10 80 00 0b 	b  13d58 <start_input_bmp+0x578>
   13d30:	ae 10 21 00 	mov  0x100, %l7
   13d34:	24 80 00 0a 	ble,a   13d5c <start_input_bmp+0x57c>
   13d38:	c2 06 20 04 	ld  [ %i0 + 4 ], %g1
   13d3c:	c4 06 00 00 	ld  [ %i0 ], %g2
   13d40:	82 10 23 e9 	mov  0x3e9, %g1
   13d44:	c2 20 a0 14 	st  %g1, [ %g2 + 0x14 ]
   13d48:	c2 06 00 00 	ld  [ %i0 ], %g1
   13d4c:	c2 00 40 00 	ld  [ %g1 ], %g1
   13d50:	9f c0 40 00 	call  %g1
   13d54:	90 10 00 18 	mov  %i0, %o0
   13d58:	c2 06 20 04 	ld  [ %i0 + 4 ], %g1
   13d5c:	c2 00 60 08 	ld  [ %g1 + 8 ], %g1
   13d60:	90 10 00 18 	mov  %i0, %o0
   13d64:	92 10 20 01 	mov  1, %o1
   13d68:	94 10 00 17 	mov  %l7, %o2
   13d6c:	9f c0 40 00 	call  %g1
   13d70:	96 10 20 03 	mov  3, %o3
   13d74:	d0 26 60 1c 	st  %o0, [ %i1 + 0x1c ]
   13d78:	90 10 00 19 	mov  %i1, %o0
   13d7c:	92 10 00 17 	mov  %l7, %o1
   13d80:	7f ff fd bc 	call  13470 <read_colormap>
   13d84:	94 10 00 1c 	mov  %i4, %o2
   13d88:	82 5d c0 1c 	smul  %l7, %i4, %g1
   13d8c:	a0 24 00 01 	sub  %l0, %g1, %l0
   13d90:	80 a4 20 00 	cmp  %l0, 0
   13d94:	36 80 00 0a 	bge,a   13dbc <start_input_bmp+0x5dc>
   13d98:	a0 84 3f ff 	addcc  %l0, -1, %l0
   13d9c:	c4 06 00 00 	ld  [ %i0 ], %g2
   13da0:	82 10 23 eb 	mov  0x3eb, %g1
   13da4:	c2 20 a0 14 	st  %g1, [ %g2 + 0x14 ]
   13da8:	c2 06 00 00 	ld  [ %i0 ], %g1
   13dac:	c2 00 40 00 	ld  [ %g1 ], %g1
   13db0:	9f c0 40 00 	call  %g1
   13db4:	90 10 00 18 	mov  %i0, %o0
   13db8:	a0 84 3f ff 	addcc  %l0, -1, %l0
   13dbc:	2c 80 00 08 	bneg,a   13ddc <start_input_bmp+0x5fc>
   13dc0:	c4 06 60 2c 	ld  [ %i1 + 0x2c ], %g2
   13dc4:	7f ff fd 99 	call  13428 <read_byte>
   13dc8:	90 10 00 19 	mov  %i1, %o0
   13dcc:	a0 84 3f ff 	addcc  %l0, -1, %l0
   13dd0:	1c bf ff fd 	bpos  13dc4 <start_input_bmp+0x5e4>
   13dd4:	01 00 00 00 	nop 
   13dd8:	c4 06 60 2c 	ld  [ %i1 + 0x2c ], %g2
   13ddc:	82 05 40 15 	add  %l5, %l5, %g1
   13de0:	80 a0 a0 18 	cmp  %g2, 0x18
   13de4:	02 80 00 03 	be  13df0 <start_input_bmp+0x610>
   13de8:	96 00 40 15 	add  %g1, %l5, %o3
   13dec:	96 10 00 15 	mov  %l5, %o3
   13df0:	80 8a e0 03 	btst  3, %o3
   13df4:	22 80 00 07 	be,a   13e10 <start_input_bmp+0x630>
   13df8:	d6 26 60 28 	st  %o3, [ %i1 + 0x28 ]
   13dfc:	96 02 e0 01 	inc  %o3
   13e00:	80 8a e0 03 	btst  3, %o3
   13e04:	32 bf ff ff 	bne,a   13e00 <start_input_bmp+0x620>
   13e08:	96 02 e0 01 	inc  %o3
   13e0c:	d6 26 60 28 	st  %o3, [ %i1 + 0x28 ]
   13e10:	c2 06 20 04 	ld  [ %i0 + 4 ], %g1
   13e14:	c2 00 60 10 	ld  [ %g1 + 0x10 ], %g1
   13e18:	90 10 00 18 	mov  %i0, %o0
   13e1c:	92 10 20 01 	mov  1, %o1
   13e20:	94 10 20 00 	clr  %o2
   13e24:	98 10 00 1d 	mov  %i5, %o4
   13e28:	9f c0 40 00 	call  %g1
   13e2c:	9a 10 20 01 	mov  1, %o5
   13e30:	d0 26 60 20 	st  %o0, [ %i1 + 0x20 ]
   13e34:	03 00 00 4d 	sethi  %hi(0x13400), %g1
   13e38:	82 10 62 8c 	or  %g1, 0x28c, %g1	! 1368c <preload_image>
   13e3c:	c2 26 60 04 	st  %g1, [ %i1 + 4 ]
   13e40:	c4 06 20 08 	ld  [ %i0 + 8 ], %g2
   13e44:	80 a0 a0 00 	cmp  %g2, 0
   13e48:	22 80 00 06 	be,a   13e60 <start_input_bmp+0x680>
   13e4c:	c2 06 20 04 	ld  [ %i0 + 4 ], %g1
   13e50:	c2 00 a0 18 	ld  [ %g2 + 0x18 ], %g1
   13e54:	82 00 60 01 	inc  %g1
   13e58:	c2 20 a0 18 	st  %g1, [ %g2 + 0x18 ]
   13e5c:	c2 06 20 04 	ld  [ %i0 + 4 ], %g1
   13e60:	94 05 40 15 	add  %l5, %l5, %o2
   13e64:	c2 00 60 08 	ld  [ %g1 + 8 ], %g1
   13e68:	90 10 00 18 	mov  %i0, %o0
   13e6c:	92 10 20 01 	mov  1, %o1
   13e70:	94 02 80 15 	add  %o2, %l5, %o2
   13e74:	9f c0 40 00 	call  %g1
   13e78:	96 10 20 01 	mov  1, %o3
   13e7c:	d0 26 60 10 	st  %o0, [ %i1 + 0x10 ]
   13e80:	82 10 20 01 	mov  1, %g1
   13e84:	c2 26 60 14 	st  %g1, [ %i1 + 0x14 ]
   13e88:	82 10 20 02 	mov  2, %g1
   13e8c:	c2 26 20 24 	st  %g1, [ %i0 + 0x24 ]
   13e90:	82 10 20 03 	mov  3, %g1
   13e94:	c2 26 20 20 	st  %g1, [ %i0 + 0x20 ]
   13e98:	82 10 20 08 	mov  8, %g1
   13e9c:	c2 26 20 30 	st  %g1, [ %i0 + 0x30 ]
   13ea0:	ea 26 20 18 	st  %l5, [ %i0 + 0x18 ]
   13ea4:	fa 26 20 1c 	st  %i5, [ %i0 + 0x1c ]
   13ea8:	81 c7 e0 08 	ret 
   13eac:	81 e8 00 00 	restore 

00013eb0 <finish_input_bmp>:
   13eb0:	81 c3 e0 08 	retl 
   13eb4:	01 00 00 00 	nop 

00013eb8 <jinit_read_bmp>:
   13eb8:	9d e3 bf 98 	save  %sp, -104, %sp
   13ebc:	c2 06 20 04 	ld  [ %i0 + 4 ], %g1
   13ec0:	c2 00 40 00 	ld  [ %g1 ], %g1
   13ec4:	90 10 00 18 	mov  %i0, %o0
   13ec8:	92 10 20 01 	mov  1, %o1
   13ecc:	9f c0 40 00 	call  %g1
   13ed0:	94 10 20 30 	mov  0x30, %o2
   13ed4:	f0 22 20 18 	st  %i0, [ %o0 + 0x18 ]
   13ed8:	03 00 00 4d 	sethi  %hi(0x13400), %g1
   13edc:	82 10 63 e0 	or  %g1, 0x3e0, %g1	! 137e0 <start_input_bmp>
   13ee0:	c2 22 00 00 	st  %g1, [ %o0 ]
   13ee4:	03 00 00 4f 	sethi  %hi(0x13c00), %g1
   13ee8:	82 10 62 b0 	or  %g1, 0x2b0, %g1	! 13eb0 <finish_input_bmp>
   13eec:	c2 22 20 08 	st  %g1, [ %o0 + 8 ]
   13ef0:	81 c7 e0 08 	ret 
   13ef4:	91 e8 00 08 	restore  %g0, %o0, %o0

00013ef8 <text_getc>:
   13ef8:	9d e3 bf 98 	save  %sp, -104, %sp
   13efc:	40 00 7e 2f 	call  337b8 <_IO_getc@plt>
   13f00:	90 10 00 18 	mov  %i0, %o0
   13f04:	80 a2 20 23 	cmp  %o0, 0x23
   13f08:	12 80 00 0d 	bne  13f3c <text_getc+0x44>
   13f0c:	01 00 00 00 	nop 
   13f10:	40 00 7e 2a 	call  337b8 <_IO_getc@plt>
   13f14:	90 10 00 18 	mov  %i0, %o0
   13f18:	82 1a 20 0a 	xor  %o0, 0xa, %g1
   13f1c:	80 a0 00 01 	cmp  %g0, %g1
   13f20:	84 40 20 00 	addx  %g0, 0, %g2
   13f24:	82 38 00 08 	xnor  %g0, %o0, %g1
   13f28:	80 a0 00 01 	cmp  %g0, %g1
   13f2c:	82 40 20 00 	addx  %g0, 0, %g1
   13f30:	80 88 80 01 	btst  %g2, %g1
   13f34:	12 bf ff f7 	bne  13f10 <text_getc+0x18>
   13f38:	01 00 00 00 	nop 
   13f3c:	81 c7 e0 08 	ret 
   13f40:	91 e8 00 08 	restore  %g0, %o0, %o0

00013f44 <read_text_integer>:
   13f44:	9d e3 bf 98 	save  %sp, -104, %sp
   13f48:	7f ff ff ec 	call  13ef8 <text_getc>
   13f4c:	90 10 00 18 	mov  %i0, %o0
   13f50:	80 a2 3f ff 	cmp  %o0, -1
   13f54:	02 80 00 15 	be  13fa8 <read_text_integer+0x64>
   13f58:	a0 10 00 08 	mov  %o0, %l0
   13f5c:	40 00 7e 1a 	call  337c4 <__ctype_b_loc@plt>
   13f60:	01 00 00 00 	nop 
   13f64:	c2 02 00 00 	ld  [ %o0 ], %g1
   13f68:	84 04 00 10 	add  %l0, %l0, %g2
   13f6c:	c2 10 40 02 	lduh  [ %g1 + %g2 ], %g1
   13f70:	80 88 60 20 	btst  0x20, %g1
   13f74:	12 bf ff f5 	bne  13f48 <read_text_integer+0x4>
   13f78:	01 00 00 00 	nop 
   13f7c:	40 00 7e 12 	call  337c4 <__ctype_b_loc@plt>
   13f80:	a2 04 3f d0 	add  %l0, -48, %l1
   13f84:	c2 02 00 00 	ld  [ %o0 ], %g1
   13f88:	84 04 00 10 	add  %l0, %l0, %g2
   13f8c:	c2 10 40 02 	lduh  [ %g1 + %g2 ], %g1
   13f90:	80 88 60 08 	btst  8, %g1
   13f94:	12 80 00 14 	bne  13fe4 <read_text_integer+0xa0>
   13f98:	01 00 00 00 	nop 
   13f9c:	e0 26 80 00 	st  %l0, [ %i2 ]
   13fa0:	10 80 00 19 	b  14004 <read_text_integer+0xc0>
   13fa4:	b0 10 20 00 	clr  %i0
   13fa8:	d0 26 80 00 	st  %o0, [ %i2 ]
   13fac:	10 80 00 16 	b  14004 <read_text_integer+0xc0>
   13fb0:	b0 10 20 00 	clr  %i0
   13fb4:	40 00 7e 04 	call  337c4 <__ctype_b_loc@plt>
   13fb8:	01 00 00 00 	nop 
   13fbc:	c2 02 00 00 	ld  [ %o0 ], %g1
   13fc0:	84 04 00 10 	add  %l0, %l0, %g2
   13fc4:	c2 10 40 02 	lduh  [ %g1 + %g2 ], %g1
   13fc8:	80 88 60 08 	btst  8, %g1
   13fcc:	02 80 00 0b 	be  13ff8 <read_text_integer+0xb4>
   13fd0:	83 2c 60 02 	sll  %l1, 2, %g1
   13fd4:	82 00 40 11 	add  %g1, %l1, %g1
   13fd8:	a2 00 40 01 	add  %g1, %g1, %l1
   13fdc:	82 04 00 11 	add  %l0, %l1, %g1
   13fe0:	a2 00 7f d0 	add  %g1, -48, %l1
   13fe4:	7f ff ff c5 	call  13ef8 <text_getc>
   13fe8:	90 10 00 18 	mov  %i0, %o0
   13fec:	80 a2 3f ff 	cmp  %o0, -1
   13ff0:	12 bf ff f1 	bne  13fb4 <read_text_integer+0x70>
   13ff4:	a0 10 00 08 	mov  %o0, %l0
   13ff8:	e2 26 40 00 	st  %l1, [ %i1 ]
   13ffc:	e0 26 80 00 	st  %l0, [ %i2 ]
   14000:	b0 10 20 01 	mov  1, %i0
   14004:	81 c7 e0 08 	ret 
   14008:	81 e8 00 00 	restore 

0001400c <read_quant_tables>:
   1400c:	9d e3 be 90 	save  %sp, -368, %sp
   14010:	90 10 00 19 	mov  %i1, %o0
   14014:	13 00 00 86 	sethi  %hi(0x21800), %o1
   14018:	40 00 7d e2 	call  337a0 <fopen@plt>
   1401c:	92 12 61 68 	or  %o1, 0x168, %o1	! 21968 <c5to8bits+0x20>
   14020:	a4 10 00 08 	mov  %o0, %l2
   14024:	a6 10 20 00 	clr  %l3
   14028:	80 a2 20 00 	cmp  %o0, 0
   1402c:	12 80 00 23 	bne  140b8 <read_quant_tables+0xac>
   14030:	a8 07 bf f8 	add  %fp, -8, %l4
   14034:	03 00 00 cd 	sethi  %hi(0x33400), %g1
   14038:	d0 00 63 e0 	ld  [ %g1 + 0x3e0 ], %o0	! 337e0 <stderr@@GLIBC_2.0>
   1403c:	13 00 00 86 	sethi  %hi(0x21800), %o1
   14040:	92 12 61 70 	or  %o1, 0x170, %o1	! 21970 <c5to8bits+0x28>
   14044:	40 00 7d bf 	call  33740 <fprintf@plt>
   14048:	94 10 00 19 	mov  %i1, %o2
   1404c:	10 80 00 46 	b  14164 <read_quant_tables+0x158>
   14050:	b0 10 20 00 	clr  %i0
   14054:	14 80 00 2d 	bg  14108 <read_quant_tables+0xfc>
   14058:	c2 07 be f4 	ld  [ %fp + -268 ], %g1
   1405c:	c2 27 be f8 	st  %g1, [ %fp + -264 ]
   14060:	a0 10 20 01 	mov  1, %l0
   14064:	a2 10 00 14 	mov  %l4, %l1
   14068:	90 10 00 12 	mov  %l2, %o0
   1406c:	92 07 be f4 	add  %fp, -268, %o1
   14070:	7f ff ff b5 	call  13f44 <read_text_integer>
   14074:	94 07 be f0 	add  %fp, -272, %o2
   14078:	80 a2 20 00 	cmp  %o0, 0
   1407c:	02 80 00 2d 	be  14130 <read_quant_tables+0x124>
   14080:	83 2c 20 02 	sll  %l0, 2, %g1
   14084:	82 00 40 11 	add  %g1, %l1, %g1
   14088:	c4 07 be f4 	ld  [ %fp + -268 ], %g2
   1408c:	a0 04 20 01 	inc  %l0
   14090:	80 a4 20 3f 	cmp  %l0, 0x3f
   14094:	04 bf ff f5 	ble  14068 <read_quant_tables+0x5c>
   14098:	c4 20 7f 00 	st  %g2, [ %g1 + -256 ]
   1409c:	90 10 00 18 	mov  %i0, %o0
   140a0:	92 10 00 13 	mov  %l3, %o1
   140a4:	94 07 be f8 	add  %fp, -264, %o2
   140a8:	96 10 00 1a 	mov  %i2, %o3
   140ac:	40 00 03 b1 	call  14f70 <jpeg_add_quant_table>
   140b0:	98 10 00 1b 	mov  %i3, %o4
   140b4:	a6 04 e0 01 	inc  %l3
   140b8:	90 10 00 12 	mov  %l2, %o0
   140bc:	92 07 be f4 	add  %fp, -268, %o1
   140c0:	7f ff ff a1 	call  13f44 <read_text_integer>
   140c4:	94 07 be f0 	add  %fp, -272, %o2
   140c8:	80 a2 20 00 	cmp  %o0, 0
   140cc:	12 bf ff e2 	bne  14054 <read_quant_tables+0x48>
   140d0:	80 a4 e0 03 	cmp  %l3, 3
   140d4:	c2 07 be f0 	ld  [ %fp + -272 ], %g1
   140d8:	80 a0 7f ff 	cmp  %g1, -1
   140dc:	02 80 00 1f 	be  14158 <read_quant_tables+0x14c>
   140e0:	03 00 00 cd 	sethi  %hi(0x33400), %g1
   140e4:	d0 00 63 e0 	ld  [ %g1 + 0x3e0 ], %o0	! 337e0 <stderr@@GLIBC_2.0>
   140e8:	13 00 00 86 	sethi  %hi(0x21800), %o1
   140ec:	92 12 61 90 	or  %o1, 0x190, %o1	! 21990 <c5to8bits+0x48>
   140f0:	40 00 7d 94 	call  33740 <fprintf@plt>
   140f4:	94 10 00 19 	mov  %i1, %o2
   140f8:	40 00 7d 9e 	call  33770 <fclose@plt>
   140fc:	90 10 00 12 	mov  %l2, %o0
   14100:	10 80 00 19 	b  14164 <read_quant_tables+0x158>
   14104:	b0 10 20 00 	clr  %i0
   14108:	03 00 00 cd 	sethi  %hi(0x33400), %g1
   1410c:	d0 00 63 e0 	ld  [ %g1 + 0x3e0 ], %o0	! 337e0 <stderr@@GLIBC_2.0>
   14110:	13 00 00 86 	sethi  %hi(0x21800), %o1
   14114:	92 12 61 b0 	or  %o1, 0x1b0, %o1	! 219b0 <c5to8bits+0x68>
   14118:	40 00 7d 8a 	call  33740 <fprintf@plt>
   1411c:	94 10 00 19 	mov  %i1, %o2
   14120:	40 00 7d 94 	call  33770 <fclose@plt>
   14124:	90 10 00 12 	mov  %l2, %o0
   14128:	10 80 00 0f 	b  14164 <read_quant_tables+0x158>
   1412c:	b0 10 20 00 	clr  %i0
   14130:	03 00 00 cd 	sethi  %hi(0x33400), %g1
   14134:	d0 00 63 e0 	ld  [ %g1 + 0x3e0 ], %o0	! 337e0 <stderr@@GLIBC_2.0>
   14138:	13 00 00 86 	sethi  %hi(0x21800), %o1
   1413c:	92 12 61 d0 	or  %o1, 0x1d0, %o1	! 219d0 <c5to8bits+0x88>
   14140:	40 00 7d 80 	call  33740 <fprintf@plt>
   14144:	94 10 00 19 	mov  %i1, %o2
   14148:	40 00 7d 8a 	call  33770 <fclose@plt>
   1414c:	90 10 00 12 	mov  %l2, %o0
   14150:	10 80 00 05 	b  14164 <read_quant_tables+0x158>
   14154:	b0 10 20 00 	clr  %i0
   14158:	40 00 7d 86 	call  33770 <fclose@plt>
   1415c:	90 10 00 12 	mov  %l2, %o0
   14160:	b0 10 20 01 	mov  1, %i0
   14164:	81 c7 e0 08 	ret 
   14168:	81 e8 00 00 	restore 

0001416c <read_scan_integer>:
   1416c:	9d e3 bf 98 	save  %sp, -104, %sp
   14170:	90 10 00 18 	mov  %i0, %o0
   14174:	92 10 00 19 	mov  %i1, %o1
   14178:	7f ff ff 73 	call  13f44 <read_text_integer>
   1417c:	94 10 00 1a 	mov  %i2, %o2
   14180:	80 a2 20 00 	cmp  %o0, 0
   14184:	02 80 00 2f 	be  14240 <read_scan_integer+0xd4>
   14188:	82 10 20 00 	clr  %g1
   1418c:	10 80 00 05 	b  141a0 <read_scan_integer+0x34>
   14190:	f2 06 80 00 	ld  [ %i2 ], %i1
   14194:	7f ff ff 59 	call  13ef8 <text_getc>
   14198:	90 10 00 18 	mov  %i0, %o0
   1419c:	b2 10 00 08 	mov  %o0, %i1
   141a0:	80 a6 7f ff 	cmp  %i1, -1
   141a4:	02 80 00 0a 	be  141cc <read_scan_integer+0x60>
   141a8:	01 00 00 00 	nop 
   141ac:	40 00 7d 86 	call  337c4 <__ctype_b_loc@plt>
   141b0:	01 00 00 00 	nop 
   141b4:	c2 02 00 00 	ld  [ %o0 ], %g1
   141b8:	84 06 40 19 	add  %i1, %i1, %g2
   141bc:	c2 10 40 02 	lduh  [ %g1 + %g2 ], %g1
   141c0:	80 88 60 20 	btst  0x20, %g1
   141c4:	12 bf ff f4 	bne  14194 <read_scan_integer+0x28>
   141c8:	01 00 00 00 	nop 
   141cc:	40 00 7d 7e 	call  337c4 <__ctype_b_loc@plt>
   141d0:	01 00 00 00 	nop 
   141d4:	c2 02 00 00 	ld  [ %o0 ], %g1
   141d8:	84 06 40 19 	add  %i1, %i1, %g2
   141dc:	c2 10 40 02 	lduh  [ %g1 + %g2 ], %g1
   141e0:	80 88 60 08 	btst  8, %g1
   141e4:	02 80 00 0a 	be  1420c <read_scan_integer+0xa0>
   141e8:	82 38 00 19 	xnor  %g0, %i1, %g1
   141ec:	90 10 00 19 	mov  %i1, %o0
   141f0:	40 00 7d 3f 	call  336ec <ungetc@plt>
   141f4:	92 10 00 18 	mov  %i0, %o1
   141f8:	82 10 20 00 	clr  %g1
   141fc:	80 a2 3f ff 	cmp  %o0, -1
   14200:	12 80 00 0e 	bne  14238 <read_scan_integer+0xcc>
   14204:	b2 10 20 20 	mov  0x20, %i1
   14208:	30 80 00 0e 	b,a   14240 <read_scan_integer+0xd4>
   1420c:	80 a0 00 01 	cmp  %g0, %g1
   14210:	84 40 20 00 	addx  %g0, 0, %g2
   14214:	82 1e 60 3b 	xor  %i1, 0x3b, %g1
   14218:	80 a0 00 01 	cmp  %g0, %g1
   1421c:	82 40 20 00 	addx  %g0, 0, %g1
   14220:	80 88 80 01 	btst  %g2, %g1
   14224:	22 80 00 06 	be,a   1423c <read_scan_integer+0xd0>
   14228:	f2 26 80 00 	st  %i1, [ %i2 ]
   1422c:	80 a6 60 3a 	cmp  %i1, 0x3a
   14230:	32 80 00 02 	bne,a   14238 <read_scan_integer+0xcc>
   14234:	b2 10 20 20 	mov  0x20, %i1
   14238:	f2 26 80 00 	st  %i1, [ %i2 ]
   1423c:	82 10 20 01 	mov  1, %g1
   14240:	81 c7 e0 08 	ret 
   14244:	91 e8 00 01 	restore  %g0, %g1, %o0

00014248 <read_scan_script>:
   14248:	9d e3 b1 80 	save  %sp, -3712, %sp
   1424c:	90 10 00 19 	mov  %i1, %o0
   14250:	13 00 00 86 	sethi  %hi(0x21800), %o1
   14254:	40 00 7d 53 	call  337a0 <fopen@plt>
   14258:	92 12 61 68 	or  %o1, 0x168, %o1	! 21968 <c5to8bits+0x20>
   1425c:	a4 10 00 08 	mov  %o0, %l2
   14260:	a2 07 b1 e8 	add  %fp, -3608, %l1
   14264:	80 a2 20 00 	cmp  %o0, 0
   14268:	12 80 00 69 	bne  1440c <read_scan_script+0x1c4>
   1426c:	a6 10 20 00 	clr  %l3
   14270:	03 00 00 cd 	sethi  %hi(0x33400), %g1
   14274:	d0 00 63 e0 	ld  [ %g1 + 0x3e0 ], %o0	! 337e0 <stderr@@GLIBC_2.0>
   14278:	13 00 00 86 	sethi  %hi(0x21800), %o1
   1427c:	92 12 61 f0 	or  %o1, 0x1f0, %o1	! 219f0 <c5to8bits+0xa8>
   14280:	40 00 7d 30 	call  33740 <fprintf@plt>
   14284:	94 10 00 19 	mov  %i1, %o2
   14288:	10 80 00 9d 	b  144fc <read_scan_script+0x2b4>
   1428c:	b0 10 20 00 	clr  %i0
   14290:	14 80 00 73 	bg  1445c <read_scan_script+0x214>
   14294:	c2 07 b1 e4 	ld  [ %fp + -3612 ], %g1
   14298:	c2 24 60 04 	st  %g1, [ %l1 + 4 ]
   1429c:	c2 07 b1 e0 	ld  [ %fp + -3616 ], %g1
   142a0:	80 a0 60 20 	cmp  %g1, 0x20
   142a4:	12 80 00 12 	bne  142ec <read_scan_script+0xa4>
   142a8:	a0 10 20 01 	mov  1, %l0
   142ac:	80 a4 20 03 	cmp  %l0, 3
   142b0:	14 80 00 75 	bg  14484 <read_scan_script+0x23c>
   142b4:	92 07 b1 e4 	add  %fp, -3612, %o1
   142b8:	90 10 00 12 	mov  %l2, %o0
   142bc:	7f ff ff ac 	call  1416c <read_scan_integer>
   142c0:	94 07 b1 e0 	add  %fp, -3616, %o2
   142c4:	80 a2 20 00 	cmp  %o0, 0
   142c8:	02 80 00 46 	be  143e0 <read_scan_script+0x198>
   142cc:	83 2c 20 02 	sll  %l0, 2, %g1
   142d0:	82 00 40 11 	add  %g1, %l1, %g1
   142d4:	c4 07 b1 e4 	ld  [ %fp + -3612 ], %g2
   142d8:	c4 20 60 04 	st  %g2, [ %g1 + 4 ]
   142dc:	c2 07 b1 e0 	ld  [ %fp + -3616 ], %g1
   142e0:	80 a0 60 20 	cmp  %g1, 0x20
   142e4:	02 bf ff f2 	be  142ac <read_scan_script+0x64>
   142e8:	a0 04 20 01 	inc  %l0
   142ec:	e0 24 40 00 	st  %l0, [ %l1 ]
   142f0:	c2 07 b1 e0 	ld  [ %fp + -3616 ], %g1
   142f4:	80 a0 60 3a 	cmp  %g1, 0x3a
   142f8:	32 80 00 2c 	bne,a   143a8 <read_scan_script+0x160>
   142fc:	c0 24 60 14 	clr  [ %l1 + 0x14 ]
   14300:	90 10 00 12 	mov  %l2, %o0
   14304:	92 07 b1 e4 	add  %fp, -3612, %o1
   14308:	7f ff ff 99 	call  1416c <read_scan_integer>
   1430c:	94 07 b1 e0 	add  %fp, -3616, %o2
   14310:	80 a2 20 00 	cmp  %o0, 0
   14314:	02 80 00 33 	be  143e0 <read_scan_script+0x198>
   14318:	c2 07 b1 e0 	ld  [ %fp + -3616 ], %g1
   1431c:	80 a0 60 20 	cmp  %g1, 0x20
   14320:	12 80 00 30 	bne  143e0 <read_scan_script+0x198>
   14324:	c2 07 b1 e4 	ld  [ %fp + -3612 ], %g1
   14328:	c2 24 60 14 	st  %g1, [ %l1 + 0x14 ]
   1432c:	90 10 00 12 	mov  %l2, %o0
   14330:	92 07 b1 e4 	add  %fp, -3612, %o1
   14334:	7f ff ff 8e 	call  1416c <read_scan_integer>
   14338:	94 07 b1 e0 	add  %fp, -3616, %o2
   1433c:	80 a2 20 00 	cmp  %o0, 0
   14340:	02 80 00 28 	be  143e0 <read_scan_script+0x198>
   14344:	c2 07 b1 e0 	ld  [ %fp + -3616 ], %g1
   14348:	80 a0 60 20 	cmp  %g1, 0x20
   1434c:	12 80 00 25 	bne  143e0 <read_scan_script+0x198>
   14350:	c2 07 b1 e4 	ld  [ %fp + -3612 ], %g1
   14354:	c2 24 60 18 	st  %g1, [ %l1 + 0x18 ]
   14358:	90 10 00 12 	mov  %l2, %o0
   1435c:	92 07 b1 e4 	add  %fp, -3612, %o1
   14360:	7f ff ff 83 	call  1416c <read_scan_integer>
   14364:	94 07 b1 e0 	add  %fp, -3616, %o2
   14368:	80 a2 20 00 	cmp  %o0, 0
   1436c:	02 80 00 1d 	be  143e0 <read_scan_script+0x198>
   14370:	c2 07 b1 e0 	ld  [ %fp + -3616 ], %g1
   14374:	80 a0 60 20 	cmp  %g1, 0x20
   14378:	12 80 00 1a 	bne  143e0 <read_scan_script+0x198>
   1437c:	c2 07 b1 e4 	ld  [ %fp + -3612 ], %g1
   14380:	c2 24 60 1c 	st  %g1, [ %l1 + 0x1c ]
   14384:	90 10 00 12 	mov  %l2, %o0
   14388:	92 07 b1 e4 	add  %fp, -3612, %o1
   1438c:	7f ff ff 78 	call  1416c <read_scan_integer>
   14390:	94 07 b1 e0 	add  %fp, -3616, %o2
   14394:	80 a2 20 00 	cmp  %o0, 0
   14398:	02 80 00 12 	be  143e0 <read_scan_script+0x198>
   1439c:	c2 07 b1 e4 	ld  [ %fp + -3612 ], %g1
   143a0:	10 80 00 06 	b  143b8 <read_scan_script+0x170>
   143a4:	c2 24 60 20 	st  %g1, [ %l1 + 0x20 ]
   143a8:	82 10 20 3f 	mov  0x3f, %g1
   143ac:	c2 24 60 18 	st  %g1, [ %l1 + 0x18 ]
   143b0:	c0 24 60 1c 	clr  [ %l1 + 0x1c ]
   143b4:	c0 24 60 20 	clr  [ %l1 + 0x20 ]
   143b8:	c2 07 b1 e0 	ld  [ %fp + -3616 ], %g1
   143bc:	84 18 60 3b 	xor  %g1, 0x3b, %g2
   143c0:	80 a0 00 02 	cmp  %g0, %g2
   143c4:	84 40 20 00 	addx  %g0, 0, %g2
   143c8:	82 38 00 01 	xnor  %g0, %g1, %g1
   143cc:	80 a0 00 01 	cmp  %g0, %g1
   143d0:	82 40 20 00 	addx  %g0, 0, %g1
   143d4:	80 88 80 01 	btst  %g2, %g1
   143d8:	22 80 00 0c 	be,a   14408 <read_scan_script+0x1c0>
   143dc:	a2 04 60 24 	add  %l1, 0x24, %l1
   143e0:	03 00 00 cd 	sethi  %hi(0x33400), %g1
   143e4:	d0 00 63 e0 	ld  [ %g1 + 0x3e0 ], %o0	! 337e0 <stderr@@GLIBC_2.0>
   143e8:	13 00 00 86 	sethi  %hi(0x21800), %o1
   143ec:	92 12 62 18 	or  %o1, 0x218, %o1	! 21a18 <c5to8bits+0xd0>
   143f0:	40 00 7c d4 	call  33740 <fprintf@plt>
   143f4:	94 10 00 19 	mov  %i1, %o2
   143f8:	40 00 7c de 	call  33770 <fclose@plt>
   143fc:	90 10 00 12 	mov  %l2, %o0
   14400:	10 80 00 3f 	b  144fc <read_scan_script+0x2b4>
   14404:	b0 10 20 00 	clr  %i0
   14408:	a6 04 e0 01 	inc  %l3
   1440c:	90 10 00 12 	mov  %l2, %o0
   14410:	92 07 b1 e4 	add  %fp, -3612, %o1
   14414:	7f ff ff 56 	call  1416c <read_scan_integer>
   14418:	94 07 b1 e0 	add  %fp, -3616, %o2
   1441c:	80 a2 20 00 	cmp  %o0, 0
   14420:	12 bf ff 9c 	bne  14290 <read_scan_script+0x48>
   14424:	80 a4 e0 63 	cmp  %l3, 0x63
   14428:	c2 07 b1 e0 	ld  [ %fp + -3616 ], %g1
   1442c:	80 a0 7f ff 	cmp  %g1, -1
   14430:	02 80 00 1f 	be  144ac <read_scan_script+0x264>
   14434:	03 00 00 cd 	sethi  %hi(0x33400), %g1
   14438:	d0 00 63 e0 	ld  [ %g1 + 0x3e0 ], %o0	! 337e0 <stderr@@GLIBC_2.0>
   1443c:	13 00 00 86 	sethi  %hi(0x21800), %o1
   14440:	92 12 61 90 	or  %o1, 0x190, %o1	! 21990 <c5to8bits+0x48>
   14444:	40 00 7c bf 	call  33740 <fprintf@plt>
   14448:	94 10 00 19 	mov  %i1, %o2
   1444c:	40 00 7c c9 	call  33770 <fclose@plt>
   14450:	90 10 00 12 	mov  %l2, %o0
   14454:	10 80 00 2a 	b  144fc <read_scan_script+0x2b4>
   14458:	b0 10 20 00 	clr  %i0
   1445c:	03 00 00 cd 	sethi  %hi(0x33400), %g1
   14460:	d0 00 63 e0 	ld  [ %g1 + 0x3e0 ], %o0	! 337e0 <stderr@@GLIBC_2.0>
   14464:	13 00 00 86 	sethi  %hi(0x21800), %o1
   14468:	92 12 62 40 	or  %o1, 0x240, %o1	! 21a40 <c5to8bits+0xf8>
   1446c:	40 00 7c b5 	call  33740 <fprintf@plt>
   14470:	94 10 00 19 	mov  %i1, %o2
   14474:	40 00 7c bf 	call  33770 <fclose@plt>
   14478:	90 10 00 12 	mov  %l2, %o0
   1447c:	10 80 00 20 	b  144fc <read_scan_script+0x2b4>
   14480:	b0 10 20 00 	clr  %i0
   14484:	03 00 00 cd 	sethi  %hi(0x33400), %g1
   14488:	d0 00 63 e0 	ld  [ %g1 + 0x3e0 ], %o0	! 337e0 <stderr@@GLIBC_2.0>
   1448c:	13 00 00 86 	sethi  %hi(0x21800), %o1
   14490:	92 12 62 68 	or  %o1, 0x268, %o1	! 21a68 <c5to8bits+0x120>
   14494:	40 00 7c ab 	call  33740 <fprintf@plt>
   14498:	94 10 00 19 	mov  %i1, %o2
   1449c:	40 00 7c b5 	call  33770 <fclose@plt>
   144a0:	90 10 00 12 	mov  %l2, %o0
   144a4:	10 80 00 16 	b  144fc <read_scan_script+0x2b4>
   144a8:	b0 10 20 00 	clr  %i0
   144ac:	80 a4 e0 00 	cmp  %l3, 0
   144b0:	04 80 00 10 	ble  144f0 <read_scan_script+0x2a8>
   144b4:	90 10 00 18 	mov  %i0, %o0
   144b8:	c2 06 20 04 	ld  [ %i0 + 4 ], %g1
   144bc:	a1 2c e0 03 	sll  %l3, 3, %l0
   144c0:	a0 04 00 13 	add  %l0, %l3, %l0
   144c4:	a1 2c 20 02 	sll  %l0, 2, %l0
   144c8:	c2 00 40 00 	ld  [ %g1 ], %g1
   144cc:	92 10 20 01 	mov  1, %o1
   144d0:	9f c0 40 00 	call  %g1
   144d4:	94 10 00 10 	mov  %l0, %o2
   144d8:	a2 10 00 08 	mov  %o0, %l1
   144dc:	92 07 b1 e8 	add  %fp, -3608, %o1
   144e0:	40 00 7c a1 	call  33764 <memcpy@plt>
   144e4:	94 10 00 10 	mov  %l0, %o2
   144e8:	e2 26 20 a4 	st  %l1, [ %i0 + 0xa4 ]
   144ec:	e6 26 20 a0 	st  %l3, [ %i0 + 0xa0 ]
   144f0:	40 00 7c a0 	call  33770 <fclose@plt>
   144f4:	90 10 00 12 	mov  %l2, %o0
   144f8:	b0 10 20 01 	mov  1, %i0
   144fc:	81 c7 e0 08 	ret 
   14500:	81 e8 00 00 	restore 

00014504 <set_quant_slots>:
   14504:	9d e3 bf 90 	save  %sp, -112, %sp
   14508:	c0 27 bf f4 	clr  [ %fp + -12 ]
   1450c:	a0 10 20 00 	clr  %l0
   14510:	c2 4e 40 00 	ldsb  [ %i1 ], %g1
   14514:	80 a0 60 00 	cmp  %g1, 0
   14518:	22 80 00 2b 	be,a   145c4 <set_quant_slots+0xc0>
   1451c:	c2 06 20 3c 	ld  [ %i0 + 0x3c ], %g1
   14520:	82 10 20 2c 	mov  0x2c, %g1
   14524:	c2 2f bf f3 	stb  %g1, [ %fp + -13 ]
   14528:	90 10 00 19 	mov  %i1, %o0
   1452c:	13 00 00 86 	sethi  %hi(0x21800), %o1
   14530:	92 12 62 98 	or  %o1, 0x298, %o1	! 21a98 <c5to8bits+0x150>
   14534:	94 07 bf f4 	add  %fp, -12, %o2
   14538:	40 00 7c 88 	call  33758 <sscanf@plt>
   1453c:	96 07 bf f3 	add  %fp, -13, %o3
   14540:	80 a2 20 00 	cmp  %o0, 0
   14544:	14 80 00 04 	bg  14554 <set_quant_slots+0x50>
   14548:	c2 4f bf f3 	ldsb  [ %fp + -13 ], %g1
   1454c:	10 80 00 27 	b  145e8 <set_quant_slots+0xe4>
   14550:	b0 10 20 00 	clr  %i0
   14554:	80 a0 60 2c 	cmp  %g1, 0x2c
   14558:	02 80 00 04 	be  14568 <set_quant_slots+0x64>
   1455c:	c2 07 bf f4 	ld  [ %fp + -12 ], %g1
   14560:	10 80 00 22 	b  145e8 <set_quant_slots+0xe4>
   14564:	b0 10 20 00 	clr  %i0
   14568:	80 a0 60 03 	cmp  %g1, 3
   1456c:	28 80 00 0a 	bleu,a   14594 <set_quant_slots+0x90>
   14570:	c2 06 20 3c 	ld  [ %i0 + 0x3c ], %g1
   14574:	03 00 00 cd 	sethi  %hi(0x33400), %g1
   14578:	d0 00 63 e0 	ld  [ %g1 + 0x3e0 ], %o0	! 337e0 <stderr@@GLIBC_2.0>
   1457c:	13 00 00 86 	sethi  %hi(0x21800), %o1
   14580:	92 12 62 a0 	or  %o1, 0x2a0, %o1	! 21aa0 <c5to8bits+0x158>
   14584:	40 00 7c 6f 	call  33740 <fprintf@plt>
   14588:	94 10 20 03 	mov  3, %o2
   1458c:	10 80 00 17 	b  145e8 <set_quant_slots+0xe4>
   14590:	b0 10 20 00 	clr  %i0
   14594:	84 5c 20 54 	smul  %l0, 0x54, %g2
   14598:	82 00 40 02 	add  %g1, %g2, %g1
   1459c:	c4 07 bf f4 	ld  [ %fp + -12 ], %g2
   145a0:	c4 20 60 10 	st  %g2, [ %g1 + 0x10 ]
   145a4:	c2 4e 40 00 	ldsb  [ %i1 ], %g1
   145a8:	80 a0 60 00 	cmp  %g1, 0
   145ac:	02 80 00 0a 	be  145d4 <set_quant_slots+0xd0>
   145b0:	80 a0 60 2c 	cmp  %g1, 0x2c
   145b4:	12 bf ff fc 	bne  145a4 <set_quant_slots+0xa0>
   145b8:	b2 06 60 01 	inc  %i1
   145bc:	10 80 00 07 	b  145d8 <set_quant_slots+0xd4>
   145c0:	a0 04 20 01 	inc  %l0
   145c4:	84 5c 20 54 	smul  %l0, 0x54, %g2
   145c8:	82 00 40 02 	add  %g1, %g2, %g1
   145cc:	c4 07 bf f4 	ld  [ %fp + -12 ], %g2
   145d0:	c4 20 60 10 	st  %g2, [ %g1 + 0x10 ]
   145d4:	a0 04 20 01 	inc  %l0
   145d8:	80 a4 20 09 	cmp  %l0, 9
   145dc:	24 bf ff ce 	ble,a   14514 <set_quant_slots+0x10>
   145e0:	c2 4e 40 00 	ldsb  [ %i1 ], %g1
   145e4:	b0 10 20 01 	mov  1, %i0
   145e8:	81 c7 e0 08 	ret 
   145ec:	81 e8 00 00 	restore 

000145f0 <set_sample_factors>:
   145f0:	9d e3 bf 88 	save  %sp, -120, %sp
   145f4:	a0 10 20 00 	clr  %l0
   145f8:	a2 10 20 01 	mov  1, %l1
   145fc:	c2 4e 40 00 	ldsb  [ %i1 ], %g1
   14600:	80 a0 60 00 	cmp  %g1, 0
   14604:	22 80 00 41 	be,a   14708 <set_sample_factors+0x118>
   14608:	c2 06 20 3c 	ld  [ %i0 + 0x3c ], %g1
   1460c:	82 10 20 2c 	mov  0x2c, %g1
   14610:	c2 2f bf eb 	stb  %g1, [ %fp + -21 ]
   14614:	90 10 00 19 	mov  %i1, %o0
   14618:	13 00 00 86 	sethi  %hi(0x21800), %o1
   1461c:	92 12 62 d0 	or  %o1, 0x2d0, %o1	! 21ad0 <c5to8bits+0x188>
   14620:	94 07 bf f4 	add  %fp, -12, %o2
   14624:	96 07 bf f3 	add  %fp, -13, %o3
   14628:	98 07 bf ec 	add  %fp, -20, %o4
   1462c:	40 00 7c 4b 	call  33758 <sscanf@plt>
   14630:	9a 07 bf eb 	add  %fp, -21, %o5
   14634:	80 a2 20 02 	cmp  %o0, 2
   14638:	14 80 00 04 	bg  14648 <set_sample_factors+0x58>
   1463c:	c2 4f bf f3 	ldsb  [ %fp + -13 ], %g1
   14640:	10 80 00 3d 	b  14734 <set_sample_factors+0x144>
   14644:	b0 10 20 00 	clr  %i0
   14648:	84 18 60 78 	xor  %g1, 0x78, %g2
   1464c:	80 a0 00 02 	cmp  %g0, %g2
   14650:	84 40 20 00 	addx  %g0, 0, %g2
   14654:	82 18 60 58 	xor  %g1, 0x58, %g1
   14658:	80 a0 00 01 	cmp  %g0, %g1
   1465c:	82 40 20 00 	addx  %g0, 0, %g1
   14660:	80 88 80 01 	btst  %g2, %g1
   14664:	12 80 00 05 	bne  14678 <set_sample_factors+0x88>
   14668:	c2 4f bf eb 	ldsb  [ %fp + -21 ], %g1
   1466c:	80 a0 60 2c 	cmp  %g1, 0x2c
   14670:	02 80 00 04 	be  14680 <set_sample_factors+0x90>
   14674:	c2 07 bf f4 	ld  [ %fp + -12 ], %g1
   14678:	10 80 00 2f 	b  14734 <set_sample_factors+0x144>
   1467c:	b0 10 20 00 	clr  %i0
   14680:	82 00 7f ff 	add  %g1, -1, %g1
   14684:	80 a0 60 03 	cmp  %g1, 3
   14688:	18 80 00 07 	bgu  146a4 <set_sample_factors+0xb4>
   1468c:	c2 07 bf ec 	ld  [ %fp + -20 ], %g1
   14690:	80 a0 60 00 	cmp  %g1, 0
   14694:	04 80 00 04 	ble  146a4 <set_sample_factors+0xb4>
   14698:	80 a0 60 04 	cmp  %g1, 4
   1469c:	24 80 00 0b 	ble,a   146c8 <set_sample_factors+0xd8>
   146a0:	c2 06 20 3c 	ld  [ %i0 + 0x3c ], %g1
   146a4:	11 00 00 86 	sethi  %hi(0x21800), %o0
   146a8:	90 12 22 e0 	or  %o0, 0x2e0, %o0	! 21ae0 <c5to8bits+0x198>
   146ac:	92 10 20 01 	mov  1, %o1
   146b0:	94 10 20 23 	mov  0x23, %o2
   146b4:	03 00 00 cd 	sethi  %hi(0x33400), %g1
   146b8:	40 00 7c 3d 	call  337ac <fwrite@plt>
   146bc:	d6 00 63 e0 	ld  [ %g1 + 0x3e0 ], %o3	! 337e0 <stderr@@GLIBC_2.0>
   146c0:	10 80 00 1d 	b  14734 <set_sample_factors+0x144>
   146c4:	b0 10 20 00 	clr  %i0
   146c8:	86 5c 20 54 	smul  %l0, 0x54, %g3
   146cc:	82 00 40 03 	add  %g1, %g3, %g1
   146d0:	c4 07 bf f4 	ld  [ %fp + -12 ], %g2
   146d4:	c4 20 60 08 	st  %g2, [ %g1 + 8 ]
   146d8:	c2 06 20 3c 	ld  [ %i0 + 0x3c ], %g1
   146dc:	82 00 40 03 	add  %g1, %g3, %g1
   146e0:	c4 07 bf ec 	ld  [ %fp + -20 ], %g2
   146e4:	c4 20 60 0c 	st  %g2, [ %g1 + 0xc ]
   146e8:	c2 4e 40 00 	ldsb  [ %i1 ], %g1
   146ec:	80 a0 60 00 	cmp  %g1, 0
   146f0:	02 80 00 0c 	be  14720 <set_sample_factors+0x130>
   146f4:	80 a0 60 2c 	cmp  %g1, 0x2c
   146f8:	12 bf ff fc 	bne  146e8 <set_sample_factors+0xf8>
   146fc:	b2 06 60 01 	inc  %i1
   14700:	10 80 00 09 	b  14724 <set_sample_factors+0x134>
   14704:	a0 04 20 01 	inc  %l0
   14708:	84 5c 20 54 	smul  %l0, 0x54, %g2
   1470c:	82 00 40 02 	add  %g1, %g2, %g1
   14710:	e2 20 60 08 	st  %l1, [ %g1 + 8 ]
   14714:	c2 06 20 3c 	ld  [ %i0 + 0x3c ], %g1
   14718:	82 00 40 02 	add  %g1, %g2, %g1
   1471c:	e2 20 60 0c 	st  %l1, [ %g1 + 0xc ]
   14720:	a0 04 20 01 	inc  %l0
   14724:	80 a4 20 09 	cmp  %l0, 9
   14728:	24 bf ff b6 	ble,a   14600 <set_sample_factors+0x10>
   1472c:	c2 4e 40 00 	ldsb  [ %i1 ], %g1
   14730:	b0 10 20 01 	mov  1, %i0
   14734:	81 c7 e0 08 	ret 
   14738:	81 e8 00 00 	restore 

0001473c <keymatch>:
   1473c:	9d e3 bf 98 	save  %sp, -104, %sp
   14740:	a4 10 20 00 	clr  %l2
   14744:	e0 4e 00 00 	ldsb  [ %i0 ], %l0
   14748:	80 a4 20 00 	cmp  %l0, 0
   1474c:	02 80 00 1f 	be  147c8 <keymatch+0x8c>
   14750:	b0 06 20 01 	inc  %i0
   14754:	e2 4e 40 00 	ldsb  [ %i1 ], %l1
   14758:	80 a4 60 00 	cmp  %l1, 0
   1475c:	02 80 00 20 	be  147dc <keymatch+0xa0>
   14760:	b2 06 60 01 	inc  %i1
   14764:	40 00 7c 18 	call  337c4 <__ctype_b_loc@plt>
   14768:	01 00 00 00 	nop 
   1476c:	c2 02 00 00 	ld  [ %o0 ], %g1
   14770:	84 04 00 10 	add  %l0, %l0, %g2
   14774:	c2 10 40 02 	lduh  [ %g1 + %g2 ], %g1
   14778:	80 88 60 01 	btst  1, %g1
   1477c:	02 80 00 0d 	be  147b0 <keymatch+0x74>
   14780:	80 a4 00 11 	cmp  %l0, %l1
   14784:	84 04 20 80 	add  %l0, 0x80, %g2
   14788:	80 a0 a1 7f 	cmp  %g2, 0x17f
   1478c:	18 80 00 07 	bgu  147a8 <keymatch+0x6c>
   14790:	82 10 00 10 	mov  %l0, %g1
   14794:	40 00 7b d9 	call  336f8 <__ctype_tolower_loc@plt>
   14798:	01 00 00 00 	nop 
   1479c:	c4 02 00 00 	ld  [ %o0 ], %g2
   147a0:	83 2c 20 02 	sll  %l0, 2, %g1
   147a4:	c2 00 80 01 	ld  [ %g2 + %g1 ], %g1
   147a8:	a0 10 00 01 	mov  %g1, %l0
   147ac:	80 a4 00 11 	cmp  %l0, %l1
   147b0:	12 80 00 0d 	bne  147e4 <keymatch+0xa8>
   147b4:	a4 04 a0 01 	inc  %l2
   147b8:	e0 4e 00 00 	ldsb  [ %i0 ], %l0
   147bc:	80 a4 20 00 	cmp  %l0, 0
   147c0:	12 bf ff e5 	bne  14754 <keymatch+0x18>
   147c4:	b0 06 20 01 	inc  %i0
   147c8:	80 a4 80 1a 	cmp  %l2, %i2
   147cc:	06 80 00 07 	bl  147e8 <keymatch+0xac>
   147d0:	b0 10 20 00 	clr  %i0
   147d4:	10 80 00 05 	b  147e8 <keymatch+0xac>
   147d8:	b0 10 20 01 	mov  1, %i0
   147dc:	10 80 00 03 	b  147e8 <keymatch+0xac>
   147e0:	b0 10 20 00 	clr  %i0
   147e4:	b0 10 20 00 	clr  %i0
   147e8:	81 c7 e0 08 	ret 
   147ec:	81 e8 00 00 	restore 

000147f0 <read_stdin>:
   147f0:	03 00 00 cd 	sethi  %hi(0x33400), %g1
   147f4:	81 c3 e0 08 	retl 
   147f8:	d0 00 63 e4 	ld  [ %g1 + 0x3e4 ], %o0	! 337e4 <stdin@@GLIBC_2.0>

000147fc <write_stdout>:
   147fc:	03 00 00 cd 	sethi  %hi(0x33400), %g1
   14800:	81 c3 e0 08 	retl 
   14804:	d0 00 63 dc 	ld  [ %g1 + 0x3dc ], %o0	! 337dc <__bss_start>

00014808 <jpeg_CreateCompress>:
   14808:	9d e3 bf 98 	save  %sp, -104, %sp
   1480c:	80 a6 60 3d 	cmp  %i1, 0x3d
   14810:	02 80 00 0e 	be  14848 <jpeg_CreateCompress+0x40>
   14814:	c0 26 20 04 	clr  [ %i0 + 4 ]
   14818:	c4 06 00 00 	ld  [ %i0 ], %g2
   1481c:	82 10 20 0a 	mov  0xa, %g1
   14820:	c2 20 a0 14 	st  %g1, [ %g2 + 0x14 ]
   14824:	c4 06 00 00 	ld  [ %i0 ], %g2
   14828:	82 10 20 3d 	mov  0x3d, %g1
   1482c:	c2 20 a0 18 	st  %g1, [ %g2 + 0x18 ]
   14830:	c2 06 00 00 	ld  [ %i0 ], %g1
   14834:	f2 20 60 1c 	st  %i1, [ %g1 + 0x1c ]
   14838:	c2 06 00 00 	ld  [ %i0 ], %g1
   1483c:	c2 00 40 00 	ld  [ %g1 ], %g1
   14840:	9f c0 40 00 	call  %g1
   14844:	90 10 00 18 	mov  %i0, %o0
   14848:	80 a6 a1 68 	cmp  %i2, 0x168
   1484c:	02 80 00 0d 	be  14880 <jpeg_CreateCompress+0x78>
   14850:	82 10 20 13 	mov  0x13, %g1
   14854:	c4 06 00 00 	ld  [ %i0 ], %g2
   14858:	c2 20 a0 14 	st  %g1, [ %g2 + 0x14 ]
   1485c:	c4 06 00 00 	ld  [ %i0 ], %g2
   14860:	82 10 21 68 	mov  0x168, %g1
   14864:	c2 20 a0 18 	st  %g1, [ %g2 + 0x18 ]
   14868:	c2 06 00 00 	ld  [ %i0 ], %g1
   1486c:	f4 20 60 1c 	st  %i2, [ %g1 + 0x1c ]
   14870:	c2 06 00 00 	ld  [ %i0 ], %g1
   14874:	c2 00 40 00 	ld  [ %g1 ], %g1
   14878:	9f c0 40 00 	call  %g1
   1487c:	90 10 00 18 	mov  %i0, %o0
   14880:	e0 06 00 00 	ld  [ %i0 ], %l0
   14884:	90 10 00 18 	mov  %i0, %o0
   14888:	92 10 20 00 	clr  %o1
   1488c:	40 00 7b c2 	call  33794 <memset@plt>
   14890:	94 10 21 68 	mov  0x168, %o2
   14894:	e0 26 00 00 	st  %l0, [ %i0 ]
   14898:	c0 26 20 0c 	clr  [ %i0 + 0xc ]
   1489c:	40 00 29 f1 	call  1f060 <jinit_memory_mgr>
   148a0:	90 10 00 18 	mov  %i0, %o0
   148a4:	c0 26 20 08 	clr  [ %i0 + 8 ]
   148a8:	c0 26 20 14 	clr  [ %i0 + 0x14 ]
   148ac:	c0 26 20 3c 	clr  [ %i0 + 0x3c ]
   148b0:	84 10 20 00 	clr  %g2
   148b4:	83 28 a0 02 	sll  %g2, 2, %g1
   148b8:	82 00 40 18 	add  %g1, %i0, %g1
   148bc:	84 00 a0 01 	inc  %g2
   148c0:	80 a0 a0 03 	cmp  %g2, 3
   148c4:	04 bf ff fc 	ble  148b4 <jpeg_CreateCompress+0xac>
   148c8:	c0 20 60 40 	clr  [ %g1 + 0x40 ]
   148cc:	84 10 20 00 	clr  %g2
   148d0:	83 28 a0 02 	sll  %g2, 2, %g1
   148d4:	82 00 40 18 	add  %g1, %i0, %g1
   148d8:	c0 20 60 50 	clr  [ %g1 + 0x50 ]
   148dc:	84 00 a0 01 	inc  %g2
   148e0:	80 a0 a0 03 	cmp  %g2, 3
   148e4:	04 bf ff fb 	ble  148d0 <jpeg_CreateCompress+0xc8>
   148e8:	c0 20 60 60 	clr  [ %g1 + 0x60 ]
   148ec:	03 00 00 86 	sethi  %hi(0x21800), %g1
   148f0:	c4 18 63 08 	ldd  [ %g1 + 0x308 ], %g2	! 21b08 <c5to8bits+0x1c0>
   148f4:	c4 3e 20 28 	std  %g2, [ %i0 + 0x28 ]
   148f8:	82 10 20 64 	mov  0x64, %g1
   148fc:	c2 26 20 10 	st  %g1, [ %i0 + 0x10 ]
   14900:	81 c7 e0 08 	ret 
   14904:	81 e8 00 00 	restore 

00014908 <jpeg_destroy_compress>:
   14908:	9d e3 bf 98 	save  %sp, -104, %sp
   1490c:	40 00 25 0c 	call  1dd3c <jpeg_destroy>
   14910:	90 10 00 18 	mov  %i0, %o0
   14914:	01 00 00 00 	nop 
   14918:	81 c7 e0 08 	ret 
   1491c:	81 e8 00 00 	restore 

00014920 <jpeg_abort_compress>:
   14920:	9d e3 bf 98 	save  %sp, -104, %sp
   14924:	40 00 24 f3 	call  1dcf0 <jpeg_abort>
   14928:	90 10 00 18 	mov  %i0, %o0
   1492c:	01 00 00 00 	nop 
   14930:	81 c7 e0 08 	ret 
   14934:	81 e8 00 00 	restore 

00014938 <jpeg_suppress_tables>:
   14938:	84 10 20 00 	clr  %g2
   1493c:	83 28 a0 02 	sll  %g2, 2, %g1
   14940:	82 00 40 08 	add  %g1, %o0, %g1
   14944:	c2 00 60 40 	ld  [ %g1 + 0x40 ], %g1
   14948:	80 a0 60 00 	cmp  %g1, 0
   1494c:	32 80 00 02 	bne,a   14954 <jpeg_suppress_tables+0x1c>
   14950:	d2 20 60 80 	st  %o1, [ %g1 + 0x80 ]
   14954:	84 00 a0 01 	inc  %g2
   14958:	80 a0 a0 03 	cmp  %g2, 3
   1495c:	04 bf ff f9 	ble  14940 <jpeg_suppress_tables+0x8>
   14960:	83 28 a0 02 	sll  %g2, 2, %g1
   14964:	84 10 20 00 	clr  %g2
   14968:	83 28 a0 02 	sll  %g2, 2, %g1
   1496c:	82 00 40 08 	add  %g1, %o0, %g1
   14970:	c2 00 60 50 	ld  [ %g1 + 0x50 ], %g1
   14974:	80 a0 60 00 	cmp  %g1, 0
   14978:	32 80 00 02 	bne,a   14980 <jpeg_suppress_tables+0x48>
   1497c:	d2 20 61 14 	st  %o1, [ %g1 + 0x114 ]
   14980:	83 28 a0 02 	sll  %g2, 2, %g1
   14984:	82 00 40 08 	add  %g1, %o0, %g1
   14988:	c2 00 60 60 	ld  [ %g1 + 0x60 ], %g1
   1498c:	80 a0 60 00 	cmp  %g1, 0
   14990:	32 80 00 02 	bne,a   14998 <jpeg_suppress_tables+0x60>
   14994:	d2 20 61 14 	st  %o1, [ %g1 + 0x114 ]
   14998:	84 00 a0 01 	inc  %g2
   1499c:	80 a0 a0 03 	cmp  %g2, 3
   149a0:	04 bf ff f3 	ble  1496c <jpeg_suppress_tables+0x34>
   149a4:	83 28 a0 02 	sll  %g2, 2, %g1
   149a8:	81 c3 e0 08 	retl 
   149ac:	01 00 00 00 	nop 

000149b0 <jpeg_finish_compress>:
   149b0:	9d e3 bf 98 	save  %sp, -104, %sp
   149b4:	c2 06 20 10 	ld  [ %i0 + 0x10 ], %g1
   149b8:	82 00 7f 9b 	add  %g1, -101, %g1
   149bc:	80 a0 60 01 	cmp  %g1, 1
   149c0:	38 80 00 14 	bgu,a   14a10 <jpeg_finish_compress+0x60>
   149c4:	c2 06 20 10 	ld  [ %i0 + 0x10 ], %g1
   149c8:	c4 06 20 d8 	ld  [ %i0 + 0xd8 ], %g2
   149cc:	c2 06 20 1c 	ld  [ %i0 + 0x1c ], %g1
   149d0:	80 a0 80 01 	cmp  %g2, %g1
   149d4:	3a 80 00 0a 	bcc,a   149fc <jpeg_finish_compress+0x4c>
   149d8:	c2 06 21 44 	ld  [ %i0 + 0x144 ], %g1
   149dc:	c4 06 00 00 	ld  [ %i0 ], %g2
   149e0:	82 10 20 42 	mov  0x42, %g1
   149e4:	c2 20 a0 14 	st  %g1, [ %g2 + 0x14 ]
   149e8:	c2 06 00 00 	ld  [ %i0 ], %g1
   149ec:	c2 00 40 00 	ld  [ %g1 ], %g1
   149f0:	9f c0 40 00 	call  %g1
   149f4:	90 10 00 18 	mov  %i0, %o0
   149f8:	c2 06 21 44 	ld  [ %i0 + 0x144 ], %g1
   149fc:	c2 00 60 08 	ld  [ %g1 + 8 ], %g1
   14a00:	9f c0 40 00 	call  %g1
   14a04:	90 10 00 18 	mov  %i0, %o0
   14a08:	10 80 00 0f 	b  14a44 <jpeg_finish_compress+0x94>
   14a0c:	c2 06 21 44 	ld  [ %i0 + 0x144 ], %g1
   14a10:	80 a0 60 67 	cmp  %g1, 0x67
   14a14:	02 80 00 0b 	be  14a40 <jpeg_finish_compress+0x90>
   14a18:	82 10 20 12 	mov  0x12, %g1
   14a1c:	c4 06 00 00 	ld  [ %i0 ], %g2
   14a20:	c2 20 a0 14 	st  %g1, [ %g2 + 0x14 ]
   14a24:	c4 06 00 00 	ld  [ %i0 ], %g2
   14a28:	c2 06 20 10 	ld  [ %i0 + 0x10 ], %g1
   14a2c:	c2 20 a0 18 	st  %g1, [ %g2 + 0x18 ]
   14a30:	c2 06 00 00 	ld  [ %i0 ], %g1
   14a34:	c2 00 40 00 	ld  [ %g1 ], %g1
   14a38:	9f c0 40 00 	call  %g1
   14a3c:	90 10 00 18 	mov  %i0, %o0
   14a40:	c2 06 21 44 	ld  [ %i0 + 0x144 ], %g1
   14a44:	84 10 00 01 	mov  %g1, %g2
   14a48:	c2 00 60 10 	ld  [ %g1 + 0x10 ], %g1
   14a4c:	80 a0 60 00 	cmp  %g1, 0
   14a50:	32 80 00 33 	bne,a   14b1c <jpeg_finish_compress+0x16c>
   14a54:	c2 06 21 54 	ld  [ %i0 + 0x154 ], %g1
   14a58:	c2 00 80 00 	ld  [ %g2 ], %g1
   14a5c:	9f c0 40 00 	call  %g1
   14a60:	90 10 00 18 	mov  %i0, %o0
   14a64:	c2 06 20 e8 	ld  [ %i0 + 0xe8 ], %g1
   14a68:	80 a0 60 00 	cmp  %g1, 0
   14a6c:	08 80 00 22 	bleu  14af4 <jpeg_finish_compress+0x144>
   14a70:	a0 10 20 00 	clr  %l0
   14a74:	c2 06 20 08 	ld  [ %i0 + 8 ], %g1
   14a78:	80 a0 60 00 	cmp  %g1, 0
   14a7c:	22 80 00 0b 	be,a   14aa8 <jpeg_finish_compress+0xf8>
   14a80:	c2 06 21 50 	ld  [ %i0 + 0x150 ], %g1
   14a84:	e0 20 60 04 	st  %l0, [ %g1 + 4 ]
   14a88:	c4 06 20 08 	ld  [ %i0 + 8 ], %g2
   14a8c:	c2 06 20 e8 	ld  [ %i0 + 0xe8 ], %g1
   14a90:	c2 20 a0 08 	st  %g1, [ %g2 + 8 ]
   14a94:	c2 06 20 08 	ld  [ %i0 + 8 ], %g1
   14a98:	c2 00 40 00 	ld  [ %g1 ], %g1
   14a9c:	9f c0 40 00 	call  %g1
   14aa0:	90 10 00 18 	mov  %i0, %o0
   14aa4:	c2 06 21 50 	ld  [ %i0 + 0x150 ], %g1
   14aa8:	c2 00 60 04 	ld  [ %g1 + 4 ], %g1
   14aac:	90 10 00 18 	mov  %i0, %o0
   14ab0:	9f c0 40 00 	call  %g1
   14ab4:	92 10 20 00 	clr  %o1
   14ab8:	80 a2 20 00 	cmp  %o0, 0
   14abc:	32 80 00 0a 	bne,a   14ae4 <jpeg_finish_compress+0x134>
   14ac0:	a0 04 20 01 	inc  %l0
   14ac4:	c4 06 00 00 	ld  [ %i0 ], %g2
   14ac8:	82 10 20 16 	mov  0x16, %g1
   14acc:	c2 20 a0 14 	st  %g1, [ %g2 + 0x14 ]
   14ad0:	c2 06 00 00 	ld  [ %i0 ], %g1
   14ad4:	c2 00 40 00 	ld  [ %g1 ], %g1
   14ad8:	9f c0 40 00 	call  %g1
   14adc:	90 10 00 18 	mov  %i0, %o0
   14ae0:	a0 04 20 01 	inc  %l0
   14ae4:	c2 06 20 e8 	ld  [ %i0 + 0xe8 ], %g1
   14ae8:	80 a0 40 10 	cmp  %g1, %l0
   14aec:	38 bf ff e3 	bgu,a   14a78 <jpeg_finish_compress+0xc8>
   14af0:	c2 06 20 08 	ld  [ %i0 + 8 ], %g1
   14af4:	c2 06 21 44 	ld  [ %i0 + 0x144 ], %g1
   14af8:	c2 00 60 08 	ld  [ %g1 + 8 ], %g1
   14afc:	9f c0 40 00 	call  %g1
   14b00:	90 10 00 18 	mov  %i0, %o0
   14b04:	c4 06 21 44 	ld  [ %i0 + 0x144 ], %g2
   14b08:	c2 00 a0 10 	ld  [ %g2 + 0x10 ], %g1
   14b0c:	80 a0 60 00 	cmp  %g1, 0
   14b10:	22 bf ff d3 	be,a   14a5c <jpeg_finish_compress+0xac>
   14b14:	c2 00 80 00 	ld  [ %g2 ], %g1
   14b18:	c2 06 21 54 	ld  [ %i0 + 0x154 ], %g1
   14b1c:	c2 00 60 10 	ld  [ %g1 + 0x10 ], %g1
   14b20:	9f c0 40 00 	call  %g1
   14b24:	90 10 00 18 	mov  %i0, %o0
   14b28:	c2 06 20 14 	ld  [ %i0 + 0x14 ], %g1
   14b2c:	c2 00 60 10 	ld  [ %g1 + 0x10 ], %g1
   14b30:	9f c0 40 00 	call  %g1
   14b34:	90 10 00 18 	mov  %i0, %o0
   14b38:	40 00 24 6e 	call  1dcf0 <jpeg_abort>
   14b3c:	90 10 00 18 	mov  %i0, %o0
   14b40:	01 00 00 00 	nop 
   14b44:	81 c7 e0 08 	ret 
   14b48:	81 e8 00 00 	restore 

00014b4c <jpeg_write_marker>:
   14b4c:	9d e3 bf 98 	save  %sp, -104, %sp
   14b50:	c2 06 20 d8 	ld  [ %i0 + 0xd8 ], %g1
   14b54:	80 a0 60 00 	cmp  %g1, 0
   14b58:	32 80 00 08 	bne,a   14b78 <jpeg_write_marker+0x2c>
   14b5c:	c4 06 00 00 	ld  [ %i0 ], %g2
   14b60:	c2 06 20 10 	ld  [ %i0 + 0x10 ], %g1
   14b64:	82 00 7f 9b 	add  %g1, -101, %g1
   14b68:	80 a0 60 02 	cmp  %g1, 2
   14b6c:	28 80 00 0d 	bleu,a   14ba0 <jpeg_write_marker+0x54>
   14b70:	c2 06 21 54 	ld  [ %i0 + 0x154 ], %g1
   14b74:	c4 06 00 00 	ld  [ %i0 ], %g2
   14b78:	82 10 20 12 	mov  0x12, %g1
   14b7c:	c2 20 a0 14 	st  %g1, [ %g2 + 0x14 ]
   14b80:	c4 06 00 00 	ld  [ %i0 ], %g2
   14b84:	c2 06 20 10 	ld  [ %i0 + 0x10 ], %g1
   14b88:	c2 20 a0 18 	st  %g1, [ %g2 + 0x18 ]
   14b8c:	c2 06 00 00 	ld  [ %i0 ], %g1
   14b90:	c2 00 40 00 	ld  [ %g1 ], %g1
   14b94:	9f c0 40 00 	call  %g1
   14b98:	90 10 00 18 	mov  %i0, %o0
   14b9c:	c2 06 21 54 	ld  [ %i0 + 0x154 ], %g1
   14ba0:	c2 00 40 00 	ld  [ %g1 ], %g1
   14ba4:	90 10 00 18 	mov  %i0, %o0
   14ba8:	92 10 00 19 	mov  %i1, %o1
   14bac:	94 10 00 1a 	mov  %i2, %o2
   14bb0:	9f c0 40 00 	call  %g1
   14bb4:	96 10 00 1b 	mov  %i3, %o3
   14bb8:	01 00 00 00 	nop 
   14bbc:	81 c7 e0 08 	ret 
   14bc0:	81 e8 00 00 	restore 

00014bc4 <jpeg_write_tables>:
   14bc4:	9d e3 bf 98 	save  %sp, -104, %sp
   14bc8:	c2 06 20 10 	ld  [ %i0 + 0x10 ], %g1
   14bcc:	80 a0 60 64 	cmp  %g1, 0x64
   14bd0:	02 80 00 0b 	be  14bfc <jpeg_write_tables+0x38>
   14bd4:	82 10 20 12 	mov  0x12, %g1
   14bd8:	c4 06 00 00 	ld  [ %i0 ], %g2
   14bdc:	c2 20 a0 14 	st  %g1, [ %g2 + 0x14 ]
   14be0:	c4 06 00 00 	ld  [ %i0 ], %g2
   14be4:	c2 06 20 10 	ld  [ %i0 + 0x10 ], %g1
   14be8:	c2 20 a0 18 	st  %g1, [ %g2 + 0x18 ]
   14bec:	c2 06 00 00 	ld  [ %i0 ], %g1
   14bf0:	c2 00 40 00 	ld  [ %g1 ], %g1
   14bf4:	9f c0 40 00 	call  %g1
   14bf8:	90 10 00 18 	mov  %i0, %o0
   14bfc:	c2 06 00 00 	ld  [ %i0 ], %g1
   14c00:	c2 00 60 10 	ld  [ %g1 + 0x10 ], %g1
   14c04:	9f c0 40 00 	call  %g1
   14c08:	90 10 00 18 	mov  %i0, %o0
   14c0c:	c2 06 20 14 	ld  [ %i0 + 0x14 ], %g1
   14c10:	c2 00 60 08 	ld  [ %g1 + 8 ], %g1
   14c14:	9f c0 40 00 	call  %g1
   14c18:	90 10 00 18 	mov  %i0, %o0
   14c1c:	40 00 0a c5 	call  17730 <jinit_marker_writer>
   14c20:	90 10 00 18 	mov  %i0, %o0
   14c24:	c2 06 21 54 	ld  [ %i0 + 0x154 ], %g1
   14c28:	c2 00 60 14 	ld  [ %g1 + 0x14 ], %g1
   14c2c:	9f c0 40 00 	call  %g1
   14c30:	90 10 00 18 	mov  %i0, %o0
   14c34:	c2 06 20 14 	ld  [ %i0 + 0x14 ], %g1
   14c38:	c2 00 60 10 	ld  [ %g1 + 0x10 ], %g1
   14c3c:	9f c0 40 00 	call  %g1
   14c40:	90 10 00 18 	mov  %i0, %o0
   14c44:	40 00 24 2b 	call  1dcf0 <jpeg_abort>
   14c48:	90 10 00 18 	mov  %i0, %o0
   14c4c:	01 00 00 00 	nop 
   14c50:	81 c7 e0 08 	ret 
   14c54:	81 e8 00 00 	restore 

00014c58 <jpeg_start_compress>:
   14c58:	9d e3 bf 98 	save  %sp, -104, %sp
   14c5c:	c2 06 20 10 	ld  [ %i0 + 0x10 ], %g1
   14c60:	80 a0 60 64 	cmp  %g1, 0x64
   14c64:	02 80 00 0b 	be  14c90 <jpeg_start_compress+0x38>
   14c68:	82 10 20 12 	mov  0x12, %g1
   14c6c:	c4 06 00 00 	ld  [ %i0 ], %g2
   14c70:	c2 20 a0 14 	st  %g1, [ %g2 + 0x14 ]
   14c74:	c4 06 00 00 	ld  [ %i0 ], %g2
   14c78:	c2 06 20 10 	ld  [ %i0 + 0x10 ], %g1
   14c7c:	c2 20 a0 18 	st  %g1, [ %g2 + 0x18 ]
   14c80:	c2 06 00 00 	ld  [ %i0 ], %g1
   14c84:	c2 00 40 00 	ld  [ %g1 ], %g1
   14c88:	9f c0 40 00 	call  %g1
   14c8c:	90 10 00 18 	mov  %i0, %o0
   14c90:	80 a6 60 00 	cmp  %i1, 0
   14c94:	22 80 00 06 	be,a   14cac <jpeg_start_compress+0x54>
   14c98:	c2 06 00 00 	ld  [ %i0 ], %g1
   14c9c:	90 10 00 18 	mov  %i0, %o0
   14ca0:	7f ff ff 26 	call  14938 <jpeg_suppress_tables>
   14ca4:	92 10 20 00 	clr  %o1
   14ca8:	c2 06 00 00 	ld  [ %i0 ], %g1
   14cac:	c2 00 60 10 	ld  [ %g1 + 0x10 ], %g1
   14cb0:	9f c0 40 00 	call  %g1
   14cb4:	90 10 00 18 	mov  %i0, %o0
   14cb8:	c2 06 20 14 	ld  [ %i0 + 0x14 ], %g1
   14cbc:	c2 00 60 08 	ld  [ %g1 + 8 ], %g1
   14cc0:	9f c0 40 00 	call  %g1
   14cc4:	90 10 00 18 	mov  %i0, %o0
   14cc8:	40 00 03 be 	call  15bc0 <jinit_compress_master>
   14ccc:	90 10 00 18 	mov  %i0, %o0
   14cd0:	c2 06 21 44 	ld  [ %i0 + 0x144 ], %g1
   14cd4:	c2 00 40 00 	ld  [ %g1 ], %g1
   14cd8:	9f c0 40 00 	call  %g1
   14cdc:	90 10 00 18 	mov  %i0, %o0
   14ce0:	c0 26 20 d8 	clr  [ %i0 + 0xd8 ]
   14ce4:	c2 06 20 a8 	ld  [ %i0 + 0xa8 ], %g1
   14ce8:	80 a0 00 01 	cmp  %g0, %g1
   14cec:	82 10 20 66 	mov  0x66, %g1
   14cf0:	82 40 7f ff 	addx  %g1, -1, %g1
   14cf4:	c2 26 20 10 	st  %g1, [ %i0 + 0x10 ]
   14cf8:	81 c7 e0 08 	ret 
   14cfc:	81 e8 00 00 	restore 

00014d00 <jpeg_write_scanlines>:
   14d00:	9d e3 bf 90 	save  %sp, -112, %sp
   14d04:	c2 06 20 10 	ld  [ %i0 + 0x10 ], %g1
   14d08:	80 a0 60 65 	cmp  %g1, 0x65
   14d0c:	02 80 00 0c 	be  14d3c <jpeg_write_scanlines+0x3c>
   14d10:	a0 10 00 18 	mov  %i0, %l0
   14d14:	c4 06 00 00 	ld  [ %i0 ], %g2
   14d18:	82 10 20 12 	mov  0x12, %g1
   14d1c:	c2 20 a0 14 	st  %g1, [ %g2 + 0x14 ]
   14d20:	c4 06 00 00 	ld  [ %i0 ], %g2
   14d24:	c2 06 20 10 	ld  [ %i0 + 0x10 ], %g1
   14d28:	c2 20 a0 18 	st  %g1, [ %g2 + 0x18 ]
   14d2c:	c2 06 00 00 	ld  [ %i0 ], %g1
   14d30:	c2 00 40 00 	ld  [ %g1 ], %g1
   14d34:	9f c0 40 00 	call  %g1
   14d38:	90 10 00 18 	mov  %i0, %o0
   14d3c:	c4 04 20 d8 	ld  [ %l0 + 0xd8 ], %g2
   14d40:	c2 04 20 1c 	ld  [ %l0 + 0x1c ], %g1
   14d44:	80 a0 80 01 	cmp  %g2, %g1
   14d48:	2a 80 00 0b 	bcs,a   14d74 <jpeg_write_scanlines+0x74>
   14d4c:	c4 04 20 08 	ld  [ %l0 + 8 ], %g2
   14d50:	c4 04 00 00 	ld  [ %l0 ], %g2
   14d54:	82 10 20 77 	mov  0x77, %g1
   14d58:	c2 20 a0 14 	st  %g1, [ %g2 + 0x14 ]
   14d5c:	c2 04 00 00 	ld  [ %l0 ], %g1
   14d60:	c2 00 60 04 	ld  [ %g1 + 4 ], %g1
   14d64:	90 10 00 10 	mov  %l0, %o0
   14d68:	9f c0 40 00 	call  %g1
   14d6c:	92 10 3f ff 	mov  -1, %o1
   14d70:	c4 04 20 08 	ld  [ %l0 + 8 ], %g2
   14d74:	80 a0 a0 00 	cmp  %g2, 0
   14d78:	22 80 00 0c 	be,a   14da8 <jpeg_write_scanlines+0xa8>
   14d7c:	c4 04 21 44 	ld  [ %l0 + 0x144 ], %g2
   14d80:	c2 04 20 d8 	ld  [ %l0 + 0xd8 ], %g1
   14d84:	c2 20 a0 04 	st  %g1, [ %g2 + 4 ]
   14d88:	c4 04 20 08 	ld  [ %l0 + 8 ], %g2
   14d8c:	c2 04 20 1c 	ld  [ %l0 + 0x1c ], %g1
   14d90:	c2 20 a0 08 	st  %g1, [ %g2 + 8 ]
   14d94:	c2 04 20 08 	ld  [ %l0 + 8 ], %g1
   14d98:	c2 00 40 00 	ld  [ %g1 ], %g1
   14d9c:	9f c0 40 00 	call  %g1
   14da0:	90 10 00 10 	mov  %l0, %o0
   14da4:	c4 04 21 44 	ld  [ %l0 + 0x144 ], %g2
   14da8:	c2 00 a0 0c 	ld  [ %g2 + 0xc ], %g1
   14dac:	80 a0 60 00 	cmp  %g1, 0
   14db0:	22 80 00 06 	be,a   14dc8 <jpeg_write_scanlines+0xc8>
   14db4:	c4 04 20 1c 	ld  [ %l0 + 0x1c ], %g2
   14db8:	c2 00 a0 04 	ld  [ %g2 + 4 ], %g1
   14dbc:	9f c0 40 00 	call  %g1
   14dc0:	90 10 00 10 	mov  %l0, %o0
   14dc4:	c4 04 20 1c 	ld  [ %l0 + 0x1c ], %g2
   14dc8:	c2 04 20 d8 	ld  [ %l0 + 0xd8 ], %g1
   14dcc:	84 20 80 01 	sub  %g2, %g1, %g2
   14dd0:	80 a6 80 02 	cmp  %i2, %g2
   14dd4:	38 80 00 02 	bgu,a   14ddc <jpeg_write_scanlines+0xdc>
   14dd8:	b4 10 00 02 	mov  %g2, %i2
   14ddc:	c0 27 bf f4 	clr  [ %fp + -12 ]
   14de0:	c2 04 21 48 	ld  [ %l0 + 0x148 ], %g1
   14de4:	c2 00 60 04 	ld  [ %g1 + 4 ], %g1
   14de8:	90 10 00 10 	mov  %l0, %o0
   14dec:	92 10 00 19 	mov  %i1, %o1
   14df0:	94 07 bf f4 	add  %fp, -12, %o2
   14df4:	9f c0 40 00 	call  %g1
   14df8:	96 10 00 1a 	mov  %i2, %o3
   14dfc:	c2 04 20 d8 	ld  [ %l0 + 0xd8 ], %g1
   14e00:	f0 07 bf f4 	ld  [ %fp + -12 ], %i0
   14e04:	82 00 40 18 	add  %g1, %i0, %g1
   14e08:	c2 24 20 d8 	st  %g1, [ %l0 + 0xd8 ]
   14e0c:	81 c7 e0 08 	ret 
   14e10:	81 e8 00 00 	restore 

00014e14 <jpeg_write_raw_data>:
   14e14:	9d e3 bf 98 	save  %sp, -104, %sp
   14e18:	c2 06 20 10 	ld  [ %i0 + 0x10 ], %g1
   14e1c:	80 a0 60 66 	cmp  %g1, 0x66
   14e20:	02 80 00 0b 	be  14e4c <jpeg_write_raw_data+0x38>
   14e24:	82 10 20 12 	mov  0x12, %g1
   14e28:	c4 06 00 00 	ld  [ %i0 ], %g2
   14e2c:	c2 20 a0 14 	st  %g1, [ %g2 + 0x14 ]
   14e30:	c4 06 00 00 	ld  [ %i0 ], %g2
   14e34:	c2 06 20 10 	ld  [ %i0 + 0x10 ], %g1
   14e38:	c2 20 a0 18 	st  %g1, [ %g2 + 0x18 ]
   14e3c:	c2 06 00 00 	ld  [ %i0 ], %g1
   14e40:	c2 00 40 00 	ld  [ %g1 ], %g1
   14e44:	9f c0 40 00 	call  %g1
   14e48:	90 10 00 18 	mov  %i0, %o0
   14e4c:	c4 06 20 d8 	ld  [ %i0 + 0xd8 ], %g2
   14e50:	c2 06 20 1c 	ld  [ %i0 + 0x1c ], %g1
   14e54:	80 a0 80 01 	cmp  %g2, %g1
   14e58:	2a 80 00 0c 	bcs,a   14e88 <jpeg_write_raw_data+0x74>
   14e5c:	c4 06 20 08 	ld  [ %i0 + 8 ], %g2
   14e60:	c4 06 00 00 	ld  [ %i0 ], %g2
   14e64:	82 10 20 77 	mov  0x77, %g1
   14e68:	c2 20 a0 14 	st  %g1, [ %g2 + 0x14 ]
   14e6c:	c2 06 00 00 	ld  [ %i0 ], %g1
   14e70:	c2 00 60 04 	ld  [ %g1 + 4 ], %g1
   14e74:	90 10 00 18 	mov  %i0, %o0
   14e78:	9f c0 40 00 	call  %g1
   14e7c:	92 10 3f ff 	mov  -1, %o1
   14e80:	10 80 00 2e 	b  14f38 <jpeg_write_raw_data+0x124>
   14e84:	82 10 20 00 	clr  %g1
   14e88:	80 a0 a0 00 	cmp  %g2, 0
   14e8c:	22 80 00 0c 	be,a   14ebc <jpeg_write_raw_data+0xa8>
   14e90:	c4 06 21 44 	ld  [ %i0 + 0x144 ], %g2
   14e94:	c2 06 20 d8 	ld  [ %i0 + 0xd8 ], %g1
   14e98:	c2 20 a0 04 	st  %g1, [ %g2 + 4 ]
   14e9c:	c4 06 20 08 	ld  [ %i0 + 8 ], %g2
   14ea0:	c2 06 20 1c 	ld  [ %i0 + 0x1c ], %g1
   14ea4:	c2 20 a0 08 	st  %g1, [ %g2 + 8 ]
   14ea8:	c2 06 20 08 	ld  [ %i0 + 8 ], %g1
   14eac:	c2 00 40 00 	ld  [ %g1 ], %g1
   14eb0:	9f c0 40 00 	call  %g1
   14eb4:	90 10 00 18 	mov  %i0, %o0
   14eb8:	c4 06 21 44 	ld  [ %i0 + 0x144 ], %g2
   14ebc:	c2 00 a0 0c 	ld  [ %g2 + 0xc ], %g1
   14ec0:	80 a0 60 00 	cmp  %g1, 0
   14ec4:	22 80 00 06 	be,a   14edc <jpeg_write_raw_data+0xc8>
   14ec8:	c2 06 20 e4 	ld  [ %i0 + 0xe4 ], %g1
   14ecc:	c2 00 a0 04 	ld  [ %g2 + 4 ], %g1
   14ed0:	9f c0 40 00 	call  %g1
   14ed4:	90 10 00 18 	mov  %i0, %o0
   14ed8:	c2 06 20 e4 	ld  [ %i0 + 0xe4 ], %g1
   14edc:	a1 28 60 03 	sll  %g1, 3, %l0
   14ee0:	80 a6 80 10 	cmp  %i2, %l0
   14ee4:	3a 80 00 0a 	bcc,a   14f0c <jpeg_write_raw_data+0xf8>
   14ee8:	c2 06 21 50 	ld  [ %i0 + 0x150 ], %g1
   14eec:	c4 06 00 00 	ld  [ %i0 ], %g2
   14ef0:	82 10 20 15 	mov  0x15, %g1
   14ef4:	c2 20 a0 14 	st  %g1, [ %g2 + 0x14 ]
   14ef8:	c2 06 00 00 	ld  [ %i0 ], %g1
   14efc:	c2 00 40 00 	ld  [ %g1 ], %g1
   14f00:	9f c0 40 00 	call  %g1
   14f04:	90 10 00 18 	mov  %i0, %o0
   14f08:	c2 06 21 50 	ld  [ %i0 + 0x150 ], %g1
   14f0c:	c2 00 60 04 	ld  [ %g1 + 4 ], %g1
   14f10:	90 10 00 18 	mov  %i0, %o0
   14f14:	9f c0 40 00 	call  %g1
   14f18:	92 10 00 19 	mov  %i1, %o1
   14f1c:	80 a2 20 00 	cmp  %o0, 0
   14f20:	02 80 00 06 	be  14f38 <jpeg_write_raw_data+0x124>
   14f24:	82 10 20 00 	clr  %g1
   14f28:	c2 06 20 d8 	ld  [ %i0 + 0xd8 ], %g1
   14f2c:	82 04 00 01 	add  %l0, %g1, %g1
   14f30:	c2 26 20 d8 	st  %g1, [ %i0 + 0xd8 ]
   14f34:	82 10 00 10 	mov  %l0, %g1
   14f38:	81 c7 e0 08 	ret 
   14f3c:	91 e8 00 01 	restore  %g0, %g1, %o0
   14f40:	00 01 53 84 	unimp  0x15384
   14f44:	00 01 53 48 	unimp  0x15348
   14f48:	00 01 53 54 	unimp  0x15354
   14f4c:	00 01 53 60 	unimp  0x15360
   14f50:	00 01 53 6c 	unimp  0x1536c
   14f54:	00 01 53 78 	unimp  0x15378
   14f58:	00 01 56 70 	unimp  0x15670
   14f5c:	00 01 54 1c 	unimp  0x1541c
   14f60:	00 01 54 48 	unimp  0x15448
   14f64:	00 01 54 c4 	unimp  0x154c4
   14f68:	00 01 55 38 	unimp  0x15538
   14f6c:	00 01 55 d8 	unimp  0x155d8

00014f70 <jpeg_add_quant_table>:
   14f70:	9d e3 bf 98 	save  %sp, -104, %sp
   14f74:	b3 2e 60 02 	sll  %i1, 2, %i1
   14f78:	b2 06 40 18 	add  %i1, %i0, %i1
   14f7c:	c2 06 20 10 	ld  [ %i0 + 0x10 ], %g1
   14f80:	80 a0 60 64 	cmp  %g1, 0x64
   14f84:	02 80 00 0c 	be  14fb4 <jpeg_add_quant_table+0x44>
   14f88:	b2 06 60 40 	add  %i1, 0x40, %i1
   14f8c:	c4 06 00 00 	ld  [ %i0 ], %g2
   14f90:	82 10 20 12 	mov  0x12, %g1
   14f94:	c2 20 a0 14 	st  %g1, [ %g2 + 0x14 ]
   14f98:	c4 06 00 00 	ld  [ %i0 ], %g2
   14f9c:	c2 06 20 10 	ld  [ %i0 + 0x10 ], %g1
   14fa0:	c2 20 a0 18 	st  %g1, [ %g2 + 0x18 ]
   14fa4:	c2 06 00 00 	ld  [ %i0 ], %g1
   14fa8:	c2 00 40 00 	ld  [ %g1 ], %g1
   14fac:	9f c0 40 00 	call  %g1
   14fb0:	90 10 00 18 	mov  %i0, %o0
   14fb4:	c2 06 40 00 	ld  [ %i1 ], %g1
   14fb8:	80 a0 60 00 	cmp  %g1, 0
   14fbc:	12 80 00 06 	bne  14fd4 <jpeg_add_quant_table+0x64>
   14fc0:	88 10 20 00 	clr  %g4
   14fc4:	40 00 23 6a 	call  1dd6c <jpeg_alloc_quant_table>
   14fc8:	90 10 00 18 	mov  %i0, %o0
   14fcc:	d0 26 40 00 	st  %o0, [ %i1 ]
   14fd0:	88 10 20 00 	clr  %g4
   14fd4:	03 14 7a e1 	sethi  %hi(0x51eb8400), %g1
   14fd8:	96 10 61 1f 	or  %g1, 0x11f, %o3	! 51eb851f <_end+0x51e84d1f>
   14fdc:	03 00 00 1f 	sethi  %hi(0x7c00), %g1
   14fe0:	98 10 63 ff 	or  %g1, 0x3ff, %o4	! 7fff <_init-0x86d1>
   14fe4:	80 a0 00 1c 	cmp  %g0, %i4
   14fe8:	9a 40 20 00 	addx  %g0, 0, %o5
   14fec:	83 29 20 02 	sll  %g4, 2, %g1
   14ff0:	c2 06 80 01 	ld  [ %i2 + %g1 ], %g1
   14ff4:	82 5e c0 01 	smul  %i3, %g1, %g1
   14ff8:	82 00 60 32 	add  %g1, 0x32, %g1
   14ffc:	80 58 40 0b 	smul  %g1, %o3, %g0
   15000:	85 40 00 00 	rd  %y, %g2
   15004:	85 38 a0 05 	sra  %g2, 5, %g2
   15008:	83 38 60 1f 	sra  %g1, 0x1f, %g1
   1500c:	86 20 80 01 	sub  %g2, %g1, %g3
   15010:	80 a0 e0 00 	cmp  %g3, 0
   15014:	24 80 00 02 	ble,a   1501c <jpeg_add_quant_table+0xac>
   15018:	86 10 20 01 	mov  1, %g3
   1501c:	80 a0 c0 0c 	cmp  %g3, %o4
   15020:	34 80 00 02 	bg,a   15028 <jpeg_add_quant_table+0xb8>
   15024:	86 10 00 0c 	mov  %o4, %g3
   15028:	82 10 00 0d 	mov  %o5, %g1
   1502c:	80 a0 e0 ff 	cmp  %g3, 0xff
   15030:	14 80 00 03 	bg  1503c <jpeg_add_quant_table+0xcc>
   15034:	84 10 20 01 	mov  1, %g2
   15038:	84 10 20 00 	clr  %g2
   1503c:	80 88 40 02 	btst  %g1, %g2
   15040:	32 80 00 02 	bne,a   15048 <jpeg_add_quant_table+0xd8>
   15044:	86 10 20 ff 	mov  0xff, %g3
   15048:	c4 06 40 00 	ld  [ %i1 ], %g2
   1504c:	82 01 00 04 	add  %g4, %g4, %g1
   15050:	88 01 20 01 	inc  %g4
   15054:	80 a1 20 3f 	cmp  %g4, 0x3f
   15058:	04 bf ff e5 	ble  14fec <jpeg_add_quant_table+0x7c>
   1505c:	c6 30 80 01 	sth  %g3, [ %g2 + %g1 ]
   15060:	c2 06 40 00 	ld  [ %i1 ], %g1
   15064:	c0 20 60 80 	clr  [ %g1 + 0x80 ]
   15068:	81 c7 e0 08 	ret 
   1506c:	81 e8 00 00 	restore 

00015070 <jpeg_set_linear_quality>:
   15070:	9d e3 bf 98 	save  %sp, -104, %sp
   15074:	90 10 00 18 	mov  %i0, %o0
   15078:	92 10 20 00 	clr  %o1
   1507c:	15 00 00 86 	sethi  %hi(0x21800), %o2
   15080:	94 12 a3 10 	or  %o2, 0x310, %o2	! 21b10 <std_luminance_quant_tbl.0>
   15084:	96 10 00 19 	mov  %i1, %o3
   15088:	7f ff ff ba 	call  14f70 <jpeg_add_quant_table>
   1508c:	98 10 00 1a 	mov  %i2, %o4
   15090:	90 10 00 18 	mov  %i0, %o0
   15094:	92 10 20 01 	mov  1, %o1
   15098:	15 00 00 87 	sethi  %hi(0x21c00), %o2
   1509c:	94 12 a0 10 	or  %o2, 0x10, %o2	! 21c10 <std_chrominance_quant_tbl.1>
   150a0:	96 10 00 19 	mov  %i1, %o3
   150a4:	7f ff ff b3 	call  14f70 <jpeg_add_quant_table>
   150a8:	98 10 00 1a 	mov  %i2, %o4
   150ac:	01 00 00 00 	nop 
   150b0:	81 c7 e0 08 	ret 
   150b4:	81 e8 00 00 	restore 

000150b8 <jpeg_quality_scaling>:
   150b8:	80 a2 20 00 	cmp  %o0, 0
   150bc:	24 80 00 02 	ble,a   150c4 <jpeg_quality_scaling+0xc>
   150c0:	90 10 20 01 	mov  1, %o0
   150c4:	80 a2 20 64 	cmp  %o0, 0x64
   150c8:	34 80 00 02 	bg,a   150d0 <jpeg_quality_scaling+0x18>
   150cc:	90 10 20 64 	mov  0x64, %o0
   150d0:	80 a2 20 31 	cmp  %o0, 0x31
   150d4:	14 80 00 0b 	bg  15100 <jpeg_quality_scaling+0x48>
   150d8:	84 02 00 08 	add  %o0, %o0, %g2
   150dc:	03 00 00 04 	sethi  %hi(0x1000), %g1
   150e0:	82 10 63 88 	or  %g1, 0x388, %g1	! 1388 <_init-0xf348>
   150e4:	85 38 60 1f 	sra  %g1, 0x1f, %g2
   150e8:	81 80 a0 00 	mov  %g2, %y
   150ec:	01 00 00 00 	nop 
   150f0:	01 00 00 00 	nop 
   150f4:	01 00 00 00 	nop 
   150f8:	90 78 40 08 	sdiv  %g1, %o0, %o0
   150fc:	30 80 00 03 	b,a   15108 <jpeg_quality_scaling+0x50>
   15100:	82 10 20 c8 	mov  0xc8, %g1
   15104:	90 20 40 02 	sub  %g1, %g2, %o0
   15108:	81 c3 e0 08 	retl 
   1510c:	01 00 00 00 	nop 

00015110 <jpeg_set_quality>:
   15110:	9d e3 bf 98 	save  %sp, -104, %sp
   15114:	7f ff ff e9 	call  150b8 <jpeg_quality_scaling>
   15118:	90 10 00 19 	mov  %i1, %o0
   1511c:	92 10 00 08 	mov  %o0, %o1
   15120:	90 10 00 18 	mov  %i0, %o0
   15124:	7f ff ff d3 	call  15070 <jpeg_set_linear_quality>
   15128:	94 10 00 1a 	mov  %i2, %o2
   1512c:	01 00 00 00 	nop 
   15130:	81 c7 e0 08 	ret 
   15134:	81 e8 00 00 	restore 

00015138 <add_huff_table>:
   15138:	9d e3 bf 98 	save  %sp, -104, %sp
   1513c:	c2 06 40 00 	ld  [ %i1 ], %g1
   15140:	80 a0 60 00 	cmp  %g1, 0
   15144:	12 80 00 05 	bne  15158 <add_huff_table+0x20>
   15148:	90 10 00 18 	mov  %i0, %o0
   1514c:	40 00 23 12 	call  1dd94 <jpeg_alloc_huff_table>
   15150:	01 00 00 00 	nop 
   15154:	d0 26 40 00 	st  %o0, [ %i1 ]
   15158:	d0 06 40 00 	ld  [ %i1 ], %o0
   1515c:	92 10 00 1a 	mov  %i2, %o1
   15160:	40 00 79 81 	call  33764 <memcpy@plt>
   15164:	94 10 20 11 	mov  0x11, %o2
   15168:	d0 06 40 00 	ld  [ %i1 ], %o0
   1516c:	90 02 20 11 	add  %o0, 0x11, %o0
   15170:	92 10 00 1b 	mov  %i3, %o1
   15174:	40 00 79 7c 	call  33764 <memcpy@plt>
   15178:	94 10 21 00 	mov  0x100, %o2
   1517c:	c2 06 40 00 	ld  [ %i1 ], %g1
   15180:	c0 20 61 14 	clr  [ %g1 + 0x114 ]
   15184:	81 c7 e0 08 	ret 
   15188:	81 e8 00 00 	restore 

0001518c <std_huff_tables>:
   1518c:	9d e3 bf 98 	save  %sp, -104, %sp
   15190:	90 10 00 18 	mov  %i0, %o0
   15194:	92 06 20 50 	add  %i0, 0x50, %o1
   15198:	15 00 00 87 	sethi  %hi(0x21c00), %o2
   1519c:	94 12 a1 10 	or  %o2, 0x110, %o2	! 21d10 <bits_dc_luminance.2>
   151a0:	17 00 00 87 	sethi  %hi(0x21c00), %o3
   151a4:	7f ff ff e5 	call  15138 <add_huff_table>
   151a8:	96 12 e1 28 	or  %o3, 0x128, %o3	! 21d28 <val_dc_luminance.3>
   151ac:	90 10 00 18 	mov  %i0, %o0
   151b0:	92 06 20 60 	add  %i0, 0x60, %o1
   151b4:	15 00 00 87 	sethi  %hi(0x21c00), %o2
   151b8:	94 12 a1 60 	or  %o2, 0x160, %o2	! 21d60 <bits_ac_luminance.6>
   151bc:	17 00 00 87 	sethi  %hi(0x21c00), %o3
   151c0:	7f ff ff de 	call  15138 <add_huff_table>
   151c4:	96 12 e1 78 	or  %o3, 0x178, %o3	! 21d78 <val_ac_luminance.7>
   151c8:	90 10 00 18 	mov  %i0, %o0
   151cc:	92 06 20 54 	add  %i0, 0x54, %o1
   151d0:	15 00 00 87 	sethi  %hi(0x21c00), %o2
   151d4:	94 12 a1 38 	or  %o2, 0x138, %o2	! 21d38 <bits_dc_chrominance.4>
   151d8:	17 00 00 87 	sethi  %hi(0x21c00), %o3
   151dc:	7f ff ff d7 	call  15138 <add_huff_table>
   151e0:	96 12 e1 50 	or  %o3, 0x150, %o3	! 21d50 <val_dc_chrominance.5>
   151e4:	90 10 00 18 	mov  %i0, %o0
   151e8:	92 06 20 64 	add  %i0, 0x64, %o1
   151ec:	15 00 00 87 	sethi  %hi(0x21c00), %o2
   151f0:	94 12 a2 20 	or  %o2, 0x220, %o2	! 21e20 <bits_ac_chrominance.8>
   151f4:	17 00 00 87 	sethi  %hi(0x21c00), %o3
   151f8:	7f ff ff d0 	call  15138 <add_huff_table>
   151fc:	96 12 e2 38 	or  %o3, 0x238, %o3	! 21e38 <val_ac_chrominance.9>
   15200:	01 00 00 00 	nop 
   15204:	81 c7 e0 08 	ret 
   15208:	81 e8 00 00 	restore 

0001520c <jpeg_set_defaults>:
   1520c:	9d e3 bf 98 	save  %sp, -104, %sp
   15210:	c2 06 20 10 	ld  [ %i0 + 0x10 ], %g1
   15214:	80 a0 60 64 	cmp  %g1, 0x64
   15218:	02 80 00 0b 	be  15244 <jpeg_set_defaults+0x38>
   1521c:	82 10 20 12 	mov  0x12, %g1
   15220:	c4 06 00 00 	ld  [ %i0 ], %g2
   15224:	c2 20 a0 14 	st  %g1, [ %g2 + 0x14 ]
   15228:	c4 06 00 00 	ld  [ %i0 ], %g2
   1522c:	c2 06 20 10 	ld  [ %i0 + 0x10 ], %g1
   15230:	c2 20 a0 18 	st  %g1, [ %g2 + 0x18 ]
   15234:	c2 06 00 00 	ld  [ %i0 ], %g1
   15238:	c2 00 40 00 	ld  [ %g1 ], %g1
   1523c:	9f c0 40 00 	call  %g1
   15240:	90 10 00 18 	mov  %i0, %o0
   15244:	c2 06 20 3c 	ld  [ %i0 + 0x3c ], %g1
   15248:	80 a0 60 00 	cmp  %g1, 0
   1524c:	12 80 00 0a 	bne  15274 <jpeg_set_defaults+0x68>
   15250:	82 10 20 08 	mov  8, %g1
   15254:	c2 06 20 04 	ld  [ %i0 + 4 ], %g1
   15258:	c2 00 40 00 	ld  [ %g1 ], %g1
   1525c:	90 10 00 18 	mov  %i0, %o0
   15260:	92 10 20 00 	clr  %o1
   15264:	9f c0 40 00 	call  %g1
   15268:	94 10 23 48 	mov  0x348, %o2
   1526c:	d0 26 20 3c 	st  %o0, [ %i0 + 0x3c ]
   15270:	82 10 20 08 	mov  8, %g1
   15274:	c2 26 20 30 	st  %g1, [ %i0 + 0x30 ]
   15278:	90 10 00 18 	mov  %i0, %o0
   1527c:	92 10 20 4b 	mov  0x4b, %o1
   15280:	7f ff ff a4 	call  15110 <jpeg_set_quality>
   15284:	94 10 20 01 	mov  1, %o2
   15288:	7f ff ff c1 	call  1518c <std_huff_tables>
   1528c:	90 10 00 18 	mov  %i0, %o0
   15290:	84 10 20 00 	clr  %g2
   15294:	88 10 20 01 	mov  1, %g4
   15298:	86 10 20 05 	mov  5, %g3
   1529c:	82 00 80 18 	add  %g2, %i0, %g1
   152a0:	c0 28 60 70 	clrb  [ %g1 + 0x70 ]
   152a4:	c8 28 60 80 	stb  %g4, [ %g1 + 0x80 ]
   152a8:	84 00 a0 01 	inc  %g2
   152ac:	80 a0 a0 0f 	cmp  %g2, 0xf
   152b0:	04 bf ff fb 	ble  1529c <jpeg_set_defaults+0x90>
   152b4:	c6 28 60 90 	stb  %g3, [ %g1 + 0x90 ]
   152b8:	c0 26 20 a4 	clr  [ %i0 + 0xa4 ]
   152bc:	c0 26 20 a0 	clr  [ %i0 + 0xa0 ]
   152c0:	c0 26 20 a8 	clr  [ %i0 + 0xa8 ]
   152c4:	c0 26 20 ac 	clr  [ %i0 + 0xac ]
   152c8:	c0 26 20 b0 	clr  [ %i0 + 0xb0 ]
   152cc:	c2 06 20 30 	ld  [ %i0 + 0x30 ], %g1
   152d0:	80 a0 60 08 	cmp  %g1, 8
   152d4:	24 80 00 05 	ble,a   152e8 <jpeg_set_defaults+0xdc>
   152d8:	c0 26 20 b4 	clr  [ %i0 + 0xb4 ]
   152dc:	82 10 20 01 	mov  1, %g1
   152e0:	c2 26 20 b0 	st  %g1, [ %i0 + 0xb0 ]
   152e4:	c0 26 20 b4 	clr  [ %i0 + 0xb4 ]
   152e8:	c0 26 20 b8 	clr  [ %i0 + 0xb8 ]
   152ec:	c0 26 20 bc 	clr  [ %i0 + 0xbc ]
   152f0:	c0 26 20 c0 	clr  [ %i0 + 0xc0 ]
   152f4:	c0 26 20 c4 	clr  [ %i0 + 0xc4 ]
   152f8:	c0 2e 20 cc 	clrb  [ %i0 + 0xcc ]
   152fc:	82 10 20 01 	mov  1, %g1
   15300:	c2 36 20 ce 	sth  %g1, [ %i0 + 0xce ]
   15304:	c2 36 20 d0 	sth  %g1, [ %i0 + 0xd0 ]
   15308:	40 00 00 05 	call  1531c <jpeg_default_colorspace>
   1530c:	90 10 00 18 	mov  %i0, %o0
   15310:	01 00 00 00 	nop 
   15314:	81 c7 e0 08 	ret 
   15318:	81 e8 00 00 	restore 

0001531c <jpeg_default_colorspace>:
   1531c:	9d e3 bf 98 	save  %sp, -104, %sp
   15320:	c2 06 20 24 	ld  [ %i0 + 0x24 ], %g1
   15324:	80 a0 60 05 	cmp  %g1, 5
   15328:	18 80 00 1a 	bgu  15390 <jpeg_default_colorspace+0x74>
   1532c:	90 10 00 18 	mov  %i0, %o0
   15330:	83 28 60 02 	sll  %g1, 2, %g1
   15334:	05 00 00 53 	sethi  %hi(0x14c00), %g2
   15338:	84 10 a3 40 	or  %g2, 0x340, %g2	! 14f40 <jpeg_write_raw_data+0x12c>
   1533c:	c2 00 80 01 	ld  [ %g2 + %g1 ], %g1
   15340:	81 c0 40 00 	jmp  %g1
   15344:	01 00 00 00 	nop 
   15348:	40 00 00 1c 	call  153b8 <jpeg_set_colorspace>
   1534c:	92 10 20 01 	mov  1, %o1	! 1 <_init-0x106cf>
   15350:	30 80 00 17 	b,a   153ac <jpeg_default_colorspace+0x90>
   15354:	40 00 00 19 	call  153b8 <jpeg_set_colorspace>
   15358:	92 10 20 03 	mov  3, %o1
   1535c:	30 80 00 14 	b,a   153ac <jpeg_default_colorspace+0x90>
   15360:	40 00 00 16 	call  153b8 <jpeg_set_colorspace>
   15364:	92 10 20 03 	mov  3, %o1
   15368:	30 80 00 11 	b,a   153ac <jpeg_default_colorspace+0x90>
   1536c:	40 00 00 13 	call  153b8 <jpeg_set_colorspace>
   15370:	92 10 20 04 	mov  4, %o1
   15374:	30 80 00 0e 	b,a   153ac <jpeg_default_colorspace+0x90>
   15378:	40 00 00 10 	call  153b8 <jpeg_set_colorspace>
   1537c:	92 10 20 05 	mov  5, %o1
   15380:	30 80 00 0b 	b,a   153ac <jpeg_default_colorspace+0x90>
   15384:	40 00 00 0d 	call  153b8 <jpeg_set_colorspace>
   15388:	92 10 20 00 	clr  %o1
   1538c:	30 80 00 08 	b,a   153ac <jpeg_default_colorspace+0x90>
   15390:	c4 06 00 00 	ld  [ %i0 ], %g2
   15394:	82 10 20 07 	mov  7, %g1
   15398:	c2 20 a0 14 	st  %g1, [ %g2 + 0x14 ]
   1539c:	c2 06 00 00 	ld  [ %i0 ], %g1
   153a0:	c2 00 40 00 	ld  [ %g1 ], %g1
   153a4:	9f c0 40 00 	call  %g1
   153a8:	01 00 00 00 	nop 
   153ac:	01 00 00 00 	nop 
   153b0:	81 c7 e0 08 	ret 
   153b4:	81 e8 00 00 	restore 

000153b8 <jpeg_set_colorspace>:
   153b8:	9d e3 bf 98 	save  %sp, -104, %sp
   153bc:	c2 06 20 10 	ld  [ %i0 + 0x10 ], %g1
   153c0:	80 a0 60 64 	cmp  %g1, 0x64
   153c4:	02 80 00 0b 	be  153f0 <jpeg_set_colorspace+0x38>
   153c8:	82 10 20 12 	mov  0x12, %g1
   153cc:	c4 06 00 00 	ld  [ %i0 ], %g2
   153d0:	c2 20 a0 14 	st  %g1, [ %g2 + 0x14 ]
   153d4:	c4 06 00 00 	ld  [ %i0 ], %g2
   153d8:	c2 06 20 10 	ld  [ %i0 + 0x10 ], %g1
   153dc:	c2 20 a0 18 	st  %g1, [ %g2 + 0x18 ]
   153e0:	c2 06 00 00 	ld  [ %i0 ], %g1
   153e4:	c2 00 40 00 	ld  [ %g1 ], %g1
   153e8:	9f c0 40 00 	call  %g1
   153ec:	90 10 00 18 	mov  %i0, %o0
   153f0:	f2 26 20 38 	st  %i1, [ %i0 + 0x38 ]
   153f4:	c0 26 20 c8 	clr  [ %i0 + 0xc8 ]
   153f8:	80 a6 60 05 	cmp  %i1, 5
   153fc:	18 80 00 c4 	bgu  1570c <jpeg_set_colorspace+0x354>
   15400:	c0 26 20 d4 	clr  [ %i0 + 0xd4 ]
   15404:	83 2e 60 02 	sll  %i1, 2, %g1
   15408:	05 00 00 53 	sethi  %hi(0x14c00), %g2
   1540c:	84 10 a3 58 	or  %g2, 0x358, %g2	! 14f58 <jpeg_write_raw_data+0x144>
   15410:	c2 00 80 01 	ld  [ %g2 + %g1 ], %g1
   15414:	81 c0 40 00 	jmp  %g1
   15418:	01 00 00 00 	nop 
   1541c:	82 10 20 01 	mov  1, %g1	! 1 <_init-0x106cf>
   15420:	c2 26 20 c8 	st  %g1, [ %i0 + 0xc8 ]
   15424:	c2 26 20 34 	st  %g1, [ %i0 + 0x34 ]
   15428:	d8 06 20 3c 	ld  [ %i0 + 0x3c ], %o4
   1542c:	c2 23 00 00 	st  %g1, [ %o4 ]
   15430:	c2 23 20 08 	st  %g1, [ %o4 + 8 ]
   15434:	c2 23 20 0c 	st  %g1, [ %o4 + 0xc ]
   15438:	c0 23 20 10 	clr  [ %o4 + 0x10 ]
   1543c:	c0 23 20 14 	clr  [ %o4 + 0x14 ]
   15440:	10 80 00 ba 	b  15728 <jpeg_set_colorspace+0x370>
   15444:	c0 23 20 18 	clr  [ %o4 + 0x18 ]
   15448:	86 10 20 01 	mov  1, %g3
   1544c:	c6 26 20 d4 	st  %g3, [ %i0 + 0xd4 ]
   15450:	82 10 20 03 	mov  3, %g1
   15454:	c2 26 20 34 	st  %g1, [ %i0 + 0x34 ]
   15458:	d8 06 20 3c 	ld  [ %i0 + 0x3c ], %o4
   1545c:	82 10 20 52 	mov  0x52, %g1
   15460:	c2 23 00 00 	st  %g1, [ %o4 ]
   15464:	c6 23 20 08 	st  %g3, [ %o4 + 8 ]
   15468:	c6 23 20 0c 	st  %g3, [ %o4 + 0xc ]
   1546c:	c0 23 20 10 	clr  [ %o4 + 0x10 ]
   15470:	c0 23 20 14 	clr  [ %o4 + 0x14 ]
   15474:	c0 23 20 18 	clr  [ %o4 + 0x18 ]
   15478:	c4 06 20 3c 	ld  [ %i0 + 0x3c ], %g2
   1547c:	98 00 a0 54 	add  %g2, 0x54, %o4
   15480:	82 10 20 47 	mov  0x47, %g1
   15484:	c2 20 a0 54 	st  %g1, [ %g2 + 0x54 ]
   15488:	c6 23 20 08 	st  %g3, [ %o4 + 8 ]
   1548c:	c6 23 20 0c 	st  %g3, [ %o4 + 0xc ]
   15490:	c0 23 20 10 	clr  [ %o4 + 0x10 ]
   15494:	c0 23 20 14 	clr  [ %o4 + 0x14 ]
   15498:	c0 23 20 18 	clr  [ %o4 + 0x18 ]
   1549c:	c4 06 20 3c 	ld  [ %i0 + 0x3c ], %g2
   154a0:	98 00 a0 a8 	add  %g2, 0xa8, %o4
   154a4:	82 10 20 42 	mov  0x42, %g1
   154a8:	c2 20 a0 a8 	st  %g1, [ %g2 + 0xa8 ]
   154ac:	c6 23 20 08 	st  %g3, [ %o4 + 8 ]
   154b0:	c6 23 20 0c 	st  %g3, [ %o4 + 0xc ]
   154b4:	c0 23 20 10 	clr  [ %o4 + 0x10 ]
   154b8:	c0 23 20 14 	clr  [ %o4 + 0x14 ]
   154bc:	10 80 00 9b 	b  15728 <jpeg_set_colorspace+0x370>
   154c0:	c0 23 20 18 	clr  [ %o4 + 0x18 ]
   154c4:	84 10 20 01 	mov  1, %g2
   154c8:	c4 26 20 c8 	st  %g2, [ %i0 + 0xc8 ]
   154cc:	88 10 20 03 	mov  3, %g4
   154d0:	c8 26 20 34 	st  %g4, [ %i0 + 0x34 ]
   154d4:	d8 06 20 3c 	ld  [ %i0 + 0x3c ], %o4
   154d8:	c4 23 00 00 	st  %g2, [ %o4 ]
   154dc:	86 10 20 02 	mov  2, %g3
   154e0:	c6 23 20 08 	st  %g3, [ %o4 + 8 ]
   154e4:	c6 23 20 0c 	st  %g3, [ %o4 + 0xc ]
   154e8:	c0 23 20 10 	clr  [ %o4 + 0x10 ]
   154ec:	c0 23 20 14 	clr  [ %o4 + 0x14 ]
   154f0:	c0 23 20 18 	clr  [ %o4 + 0x18 ]
   154f4:	c2 06 20 3c 	ld  [ %i0 + 0x3c ], %g1
   154f8:	98 00 60 54 	add  %g1, 0x54, %o4
   154fc:	c6 20 60 54 	st  %g3, [ %g1 + 0x54 ]
   15500:	c4 23 20 08 	st  %g2, [ %o4 + 8 ]
   15504:	c4 23 20 0c 	st  %g2, [ %o4 + 0xc ]
   15508:	c4 23 20 10 	st  %g2, [ %o4 + 0x10 ]
   1550c:	c4 23 20 14 	st  %g2, [ %o4 + 0x14 ]
   15510:	c4 23 20 18 	st  %g2, [ %o4 + 0x18 ]
   15514:	c2 06 20 3c 	ld  [ %i0 + 0x3c ], %g1
   15518:	98 00 60 a8 	add  %g1, 0xa8, %o4
   1551c:	c8 20 60 a8 	st  %g4, [ %g1 + 0xa8 ]
   15520:	c4 23 20 08 	st  %g2, [ %o4 + 8 ]
   15524:	c4 23 20 0c 	st  %g2, [ %o4 + 0xc ]
   15528:	c4 23 20 10 	st  %g2, [ %o4 + 0x10 ]
   1552c:	c4 23 20 14 	st  %g2, [ %o4 + 0x14 ]
   15530:	10 80 00 7e 	b  15728 <jpeg_set_colorspace+0x370>
   15534:	c4 23 20 18 	st  %g2, [ %o4 + 0x18 ]
   15538:	86 10 20 01 	mov  1, %g3
   1553c:	c6 26 20 d4 	st  %g3, [ %i0 + 0xd4 ]
   15540:	82 10 20 04 	mov  4, %g1
   15544:	c2 26 20 34 	st  %g1, [ %i0 + 0x34 ]
   15548:	d8 06 20 3c 	ld  [ %i0 + 0x3c ], %o4
   1554c:	82 10 20 43 	mov  0x43, %g1
   15550:	c2 23 00 00 	st  %g1, [ %o4 ]
   15554:	c6 23 20 08 	st  %g3, [ %o4 + 8 ]
   15558:	c6 23 20 0c 	st  %g3, [ %o4 + 0xc ]
   1555c:	c0 23 20 10 	clr  [ %o4 + 0x10 ]
   15560:	c0 23 20 14 	clr  [ %o4 + 0x14 ]
   15564:	c0 23 20 18 	clr  [ %o4 + 0x18 ]
   15568:	c4 06 20 3c 	ld  [ %i0 + 0x3c ], %g2
   1556c:	98 00 a0 54 	add  %g2, 0x54, %o4
   15570:	82 10 20 4d 	mov  0x4d, %g1
   15574:	c2 20 a0 54 	st  %g1, [ %g2 + 0x54 ]
   15578:	c6 23 20 08 	st  %g3, [ %o4 + 8 ]
   1557c:	c6 23 20 0c 	st  %g3, [ %o4 + 0xc ]
   15580:	c0 23 20 10 	clr  [ %o4 + 0x10 ]
   15584:	c0 23 20 14 	clr  [ %o4 + 0x14 ]
   15588:	c0 23 20 18 	clr  [ %o4 + 0x18 ]
   1558c:	c4 06 20 3c 	ld  [ %i0 + 0x3c ], %g2
   15590:	98 00 a0 a8 	add  %g2, 0xa8, %o4
   15594:	82 10 20 59 	mov  0x59, %g1
   15598:	c2 20 a0 a8 	st  %g1, [ %g2 + 0xa8 ]
   1559c:	c6 23 20 08 	st  %g3, [ %o4 + 8 ]
   155a0:	c6 23 20 0c 	st  %g3, [ %o4 + 0xc ]
   155a4:	c0 23 20 10 	clr  [ %o4 + 0x10 ]
   155a8:	c0 23 20 14 	clr  [ %o4 + 0x14 ]
   155ac:	c0 23 20 18 	clr  [ %o4 + 0x18 ]
   155b0:	c4 06 20 3c 	ld  [ %i0 + 0x3c ], %g2
   155b4:	98 00 a0 fc 	add  %g2, 0xfc, %o4
   155b8:	82 10 20 4b 	mov  0x4b, %g1
   155bc:	c2 20 a0 fc 	st  %g1, [ %g2 + 0xfc ]
   155c0:	c6 23 20 08 	st  %g3, [ %o4 + 8 ]
   155c4:	c6 23 20 0c 	st  %g3, [ %o4 + 0xc ]
   155c8:	c0 23 20 10 	clr  [ %o4 + 0x10 ]
   155cc:	c0 23 20 14 	clr  [ %o4 + 0x14 ]
   155d0:	10 80 00 56 	b  15728 <jpeg_set_colorspace+0x370>
   155d4:	c0 23 20 18 	clr  [ %o4 + 0x18 ]
   155d8:	84 10 20 01 	mov  1, %g2
   155dc:	c4 26 20 d4 	st  %g2, [ %i0 + 0xd4 ]
   155e0:	9a 10 20 04 	mov  4, %o5
   155e4:	da 26 20 34 	st  %o5, [ %i0 + 0x34 ]
   155e8:	d8 06 20 3c 	ld  [ %i0 + 0x3c ], %o4
   155ec:	c4 23 00 00 	st  %g2, [ %o4 ]
   155f0:	88 10 20 02 	mov  2, %g4
   155f4:	c8 23 20 08 	st  %g4, [ %o4 + 8 ]
   155f8:	c8 23 20 0c 	st  %g4, [ %o4 + 0xc ]
   155fc:	c0 23 20 10 	clr  [ %o4 + 0x10 ]
   15600:	c0 23 20 14 	clr  [ %o4 + 0x14 ]
   15604:	c0 23 20 18 	clr  [ %o4 + 0x18 ]
   15608:	c2 06 20 3c 	ld  [ %i0 + 0x3c ], %g1
   1560c:	98 00 60 54 	add  %g1, 0x54, %o4
   15610:	c8 20 60 54 	st  %g4, [ %g1 + 0x54 ]
   15614:	c4 23 20 08 	st  %g2, [ %o4 + 8 ]
   15618:	c4 23 20 0c 	st  %g2, [ %o4 + 0xc ]
   1561c:	c4 23 20 10 	st  %g2, [ %o4 + 0x10 ]
   15620:	c4 23 20 14 	st  %g2, [ %o4 + 0x14 ]
   15624:	c4 23 20 18 	st  %g2, [ %o4 + 0x18 ]
   15628:	c6 06 20 3c 	ld  [ %i0 + 0x3c ], %g3
   1562c:	98 00 e0 a8 	add  %g3, 0xa8, %o4
   15630:	82 10 20 03 	mov  3, %g1
   15634:	c2 20 e0 a8 	st  %g1, [ %g3 + 0xa8 ]
   15638:	c4 23 20 08 	st  %g2, [ %o4 + 8 ]
   1563c:	c4 23 20 0c 	st  %g2, [ %o4 + 0xc ]
   15640:	c4 23 20 10 	st  %g2, [ %o4 + 0x10 ]
   15644:	c4 23 20 14 	st  %g2, [ %o4 + 0x14 ]
   15648:	c4 23 20 18 	st  %g2, [ %o4 + 0x18 ]
   1564c:	c2 06 20 3c 	ld  [ %i0 + 0x3c ], %g1
   15650:	98 00 60 fc 	add  %g1, 0xfc, %o4
   15654:	da 20 60 fc 	st  %o5, [ %g1 + 0xfc ]
   15658:	c8 23 20 08 	st  %g4, [ %o4 + 8 ]
   1565c:	c8 23 20 0c 	st  %g4, [ %o4 + 0xc ]
   15660:	c0 23 20 10 	clr  [ %o4 + 0x10 ]
   15664:	c0 23 20 14 	clr  [ %o4 + 0x14 ]
   15668:	10 80 00 30 	b  15728 <jpeg_set_colorspace+0x370>
   1566c:	c0 23 20 18 	clr  [ %o4 + 0x18 ]
   15670:	c2 06 20 20 	ld  [ %i0 + 0x20 ], %g1
   15674:	c2 26 20 34 	st  %g1, [ %i0 + 0x34 ]
   15678:	82 00 7f ff 	add  %g1, -1, %g1
   1567c:	80 a0 60 09 	cmp  %g1, 9
   15680:	28 80 00 10 	bleu,a   156c0 <jpeg_set_colorspace+0x308>
   15684:	c2 06 20 34 	ld  [ %i0 + 0x34 ], %g1
   15688:	c4 06 00 00 	ld  [ %i0 ], %g2
   1568c:	82 10 20 18 	mov  0x18, %g1
   15690:	c2 20 a0 14 	st  %g1, [ %g2 + 0x14 ]
   15694:	c4 06 00 00 	ld  [ %i0 ], %g2
   15698:	c2 06 20 34 	ld  [ %i0 + 0x34 ], %g1
   1569c:	c2 20 a0 18 	st  %g1, [ %g2 + 0x18 ]
   156a0:	c4 06 00 00 	ld  [ %i0 ], %g2
   156a4:	82 10 20 0a 	mov  0xa, %g1
   156a8:	c2 20 a0 1c 	st  %g1, [ %g2 + 0x1c ]
   156ac:	c2 06 00 00 	ld  [ %i0 ], %g1
   156b0:	c2 00 40 00 	ld  [ %g1 ], %g1
   156b4:	9f c0 40 00 	call  %g1
   156b8:	90 10 00 18 	mov  %i0, %o0
   156bc:	c2 06 20 34 	ld  [ %i0 + 0x34 ], %g1
   156c0:	80 a0 60 00 	cmp  %g1, 0
   156c4:	04 80 00 19 	ble  15728 <jpeg_set_colorspace+0x370>
   156c8:	86 10 20 00 	clr  %g3
   156cc:	88 10 20 01 	mov  1, %g4
   156d0:	84 58 e0 54 	smul  %g3, 0x54, %g2
   156d4:	c2 06 20 3c 	ld  [ %i0 + 0x3c ], %g1
   156d8:	98 00 80 01 	add  %g2, %g1, %o4
   156dc:	c6 20 80 01 	st  %g3, [ %g2 + %g1 ]
   156e0:	c8 23 20 08 	st  %g4, [ %o4 + 8 ]
   156e4:	c8 23 20 0c 	st  %g4, [ %o4 + 0xc ]
   156e8:	c0 23 20 10 	clr  [ %o4 + 0x10 ]
   156ec:	c0 23 20 14 	clr  [ %o4 + 0x14 ]
   156f0:	c0 23 20 18 	clr  [ %o4 + 0x18 ]
   156f4:	86 00 e0 01 	inc  %g3
   156f8:	c2 06 20 34 	ld  [ %i0 + 0x34 ], %g1
   156fc:	80 a0 40 03 	cmp  %g1, %g3
   15700:	14 bf ff f5 	bg  156d4 <jpeg_set_colorspace+0x31c>
   15704:	84 58 e0 54 	smul  %g3, 0x54, %g2
   15708:	30 80 00 08 	b,a   15728 <jpeg_set_colorspace+0x370>
   1570c:	c4 06 00 00 	ld  [ %i0 ], %g2
   15710:	82 10 20 08 	mov  8, %g1
   15714:	c2 20 a0 14 	st  %g1, [ %g2 + 0x14 ]
   15718:	c2 06 00 00 	ld  [ %i0 ], %g1
   1571c:	c2 00 40 00 	ld  [ %g1 ], %g1
   15720:	9f c0 40 00 	call  %g1
   15724:	90 10 00 18 	mov  %i0, %o0
   15728:	01 00 00 00 	nop 
   1572c:	81 c7 e0 08 	ret 
   15730:	81 e8 00 00 	restore 

00015734 <fill_a_scan>:
   15734:	82 10 20 01 	mov  1, %g1
   15738:	c2 22 00 00 	st  %g1, [ %o0 ]
   1573c:	d2 22 20 04 	st  %o1, [ %o0 + 4 ]
   15740:	d4 22 20 14 	st  %o2, [ %o0 + 0x14 ]
   15744:	d6 22 20 18 	st  %o3, [ %o0 + 0x18 ]
   15748:	d8 22 20 1c 	st  %o4, [ %o0 + 0x1c ]
   1574c:	da 22 20 20 	st  %o5, [ %o0 + 0x20 ]
   15750:	81 c3 e0 08 	retl 
   15754:	90 02 20 24 	add  %o0, 0x24, %o0

00015758 <fill_scans>:
   15758:	82 10 20 00 	clr  %g1
   1575c:	80 a0 40 09 	cmp  %g1, %o1
   15760:	16 80 00 0c 	bge  15790 <fill_scans+0x38>
   15764:	84 10 20 01 	mov  1, %g2
   15768:	c4 22 00 00 	st  %g2, [ %o0 ]
   1576c:	c2 22 20 04 	st  %g1, [ %o0 + 4 ]
   15770:	d4 22 20 14 	st  %o2, [ %o0 + 0x14 ]
   15774:	d6 22 20 18 	st  %o3, [ %o0 + 0x18 ]
   15778:	d8 22 20 1c 	st  %o4, [ %o0 + 0x1c ]
   1577c:	da 22 20 20 	st  %o5, [ %o0 + 0x20 ]
   15780:	82 00 60 01 	inc  %g1
   15784:	80 a0 40 09 	cmp  %g1, %o1
   15788:	06 bf ff f8 	bl  15768 <fill_scans+0x10>
   1578c:	90 02 20 24 	add  %o0, 0x24, %o0
   15790:	81 c3 e0 08 	retl 
   15794:	01 00 00 00 	nop 

00015798 <fill_dc_scans>:
   15798:	9d e3 bf 98 	save  %sp, -104, %sp
   1579c:	90 10 00 18 	mov  %i0, %o0
   157a0:	92 10 00 19 	mov  %i1, %o1
   157a4:	98 10 00 1a 	mov  %i2, %o4
   157a8:	80 a6 60 04 	cmp  %i1, 4
   157ac:	14 80 00 13 	bg  157f8 <fill_dc_scans+0x60>
   157b0:	9a 10 00 1b 	mov  %i3, %o5
   157b4:	84 10 20 00 	clr  %g2
   157b8:	80 a0 80 19 	cmp  %g2, %i1
   157bc:	16 80 00 09 	bge  157e0 <fill_dc_scans+0x48>
   157c0:	f2 22 00 00 	st  %i1, [ %o0 ]
   157c4:	83 28 a0 02 	sll  %g2, 2, %g1
   157c8:	82 00 40 08 	add  %g1, %o0, %g1
   157cc:	c4 20 60 04 	st  %g2, [ %g1 + 4 ]
   157d0:	84 00 a0 01 	inc  %g2
   157d4:	80 a0 80 09 	cmp  %g2, %o1
   157d8:	06 bf ff fc 	bl  157c8 <fill_dc_scans+0x30>
   157dc:	83 28 a0 02 	sll  %g2, 2, %g1
   157e0:	c0 22 20 18 	clr  [ %o0 + 0x18 ]
   157e4:	c0 22 20 14 	clr  [ %o0 + 0x14 ]
   157e8:	d8 22 20 1c 	st  %o4, [ %o0 + 0x1c ]
   157ec:	da 22 20 20 	st  %o5, [ %o0 + 0x20 ]
   157f0:	10 80 00 05 	b  15804 <fill_dc_scans+0x6c>
   157f4:	90 02 20 24 	add  %o0, 0x24, %o0
   157f8:	94 10 20 00 	clr  %o2
   157fc:	7f ff ff d7 	call  15758 <fill_scans>
   15800:	96 10 20 00 	clr  %o3
   15804:	81 c7 e0 08 	ret 
   15808:	91 e8 00 08 	restore  %g0, %o0, %o0

0001580c <jpeg_simple_progression>:
   1580c:	9d e3 bf 98 	save  %sp, -104, %sp
   15810:	c2 06 20 10 	ld  [ %i0 + 0x10 ], %g1
   15814:	80 a0 60 64 	cmp  %g1, 0x64
   15818:	02 80 00 0c 	be  15848 <jpeg_simple_progression+0x3c>
   1581c:	e0 06 20 34 	ld  [ %i0 + 0x34 ], %l0
   15820:	c4 06 00 00 	ld  [ %i0 ], %g2
   15824:	82 10 20 12 	mov  0x12, %g1
   15828:	c2 20 a0 14 	st  %g1, [ %g2 + 0x14 ]
   1582c:	c4 06 00 00 	ld  [ %i0 ], %g2
   15830:	c2 06 20 10 	ld  [ %i0 + 0x10 ], %g1
   15834:	c2 20 a0 18 	st  %g1, [ %g2 + 0x18 ]
   15838:	c2 06 00 00 	ld  [ %i0 ], %g1
   1583c:	c2 00 40 00 	ld  [ %g1 ], %g1
   15840:	9f c0 40 00 	call  %g1
   15844:	90 10 00 18 	mov  %i0, %o0
   15848:	80 a4 20 03 	cmp  %l0, 3
   1584c:	12 80 00 07 	bne  15868 <jpeg_simple_progression+0x5c>
   15850:	82 04 00 10 	add  %l0, %l0, %g1
   15854:	c2 06 20 38 	ld  [ %i0 + 0x38 ], %g1
   15858:	80 a0 60 03 	cmp  %g1, 3
   1585c:	02 80 00 09 	be  15880 <jpeg_simple_progression+0x74>
   15860:	a2 10 20 0a 	mov  0xa, %l1
   15864:	82 04 00 10 	add  %l0, %l0, %g1
   15868:	82 00 40 10 	add  %g1, %l0, %g1
   1586c:	80 a4 20 04 	cmp  %l0, 4
   15870:	14 80 00 04 	bg  15880 <jpeg_simple_progression+0x74>
   15874:	a2 00 40 01 	add  %g1, %g1, %l1
   15878:	83 2c 20 02 	sll  %l0, 2, %g1
   1587c:	a2 00 60 02 	add  %g1, 2, %l1
   15880:	c2 06 20 04 	ld  [ %i0 + 4 ], %g1
   15884:	95 2c 60 03 	sll  %l1, 3, %o2
   15888:	94 02 80 11 	add  %o2, %l1, %o2
   1588c:	c2 00 40 00 	ld  [ %g1 ], %g1
   15890:	90 10 00 18 	mov  %i0, %o0
   15894:	92 10 20 00 	clr  %o1
   15898:	9f c0 40 00 	call  %g1
   1589c:	95 2a a0 02 	sll  %o2, 2, %o2
   158a0:	84 10 00 08 	mov  %o0, %g2
   158a4:	d0 26 20 a4 	st  %o0, [ %i0 + 0xa4 ]
   158a8:	80 a4 20 03 	cmp  %l0, 3
   158ac:	12 80 00 3f 	bne  159a8 <jpeg_simple_progression+0x19c>
   158b0:	e2 26 20 a0 	st  %l1, [ %i0 + 0xa0 ]
   158b4:	c2 06 20 38 	ld  [ %i0 + 0x38 ], %g1
   158b8:	80 a0 60 03 	cmp  %g1, 3
   158bc:	32 80 00 3c 	bne,a   159ac <jpeg_simple_progression+0x1a0>
   158c0:	90 10 00 02 	mov  %g2, %o0
   158c4:	92 10 20 03 	mov  3, %o1
   158c8:	94 10 20 00 	clr  %o2
   158cc:	7f ff ff b3 	call  15798 <fill_dc_scans>
   158d0:	96 10 20 01 	mov  1, %o3
   158d4:	92 10 20 00 	clr  %o1
   158d8:	94 10 20 01 	mov  1, %o2
   158dc:	96 10 20 05 	mov  5, %o3
   158e0:	98 10 20 00 	clr  %o4
   158e4:	7f ff ff 94 	call  15734 <fill_a_scan>
   158e8:	9a 10 20 02 	mov  2, %o5
   158ec:	92 10 20 02 	mov  2, %o1
   158f0:	94 10 20 01 	mov  1, %o2
   158f4:	96 10 20 3f 	mov  0x3f, %o3
   158f8:	98 10 20 00 	clr  %o4
   158fc:	7f ff ff 8e 	call  15734 <fill_a_scan>
   15900:	9a 10 20 01 	mov  1, %o5
   15904:	92 10 20 01 	mov  1, %o1
   15908:	94 10 20 01 	mov  1, %o2
   1590c:	96 10 20 3f 	mov  0x3f, %o3
   15910:	98 10 20 00 	clr  %o4
   15914:	7f ff ff 88 	call  15734 <fill_a_scan>
   15918:	9a 10 20 01 	mov  1, %o5
   1591c:	92 10 20 00 	clr  %o1
   15920:	94 10 20 06 	mov  6, %o2
   15924:	96 10 20 3f 	mov  0x3f, %o3
   15928:	98 10 20 00 	clr  %o4
   1592c:	7f ff ff 82 	call  15734 <fill_a_scan>
   15930:	9a 10 20 02 	mov  2, %o5
   15934:	92 10 20 00 	clr  %o1
   15938:	94 10 20 01 	mov  1, %o2
   1593c:	96 10 20 3f 	mov  0x3f, %o3
   15940:	98 10 20 02 	mov  2, %o4
   15944:	7f ff ff 7c 	call  15734 <fill_a_scan>
   15948:	9a 10 20 01 	mov  1, %o5
   1594c:	92 10 20 03 	mov  3, %o1
   15950:	94 10 20 01 	mov  1, %o2
   15954:	7f ff ff 91 	call  15798 <fill_dc_scans>
   15958:	96 10 20 00 	clr  %o3
   1595c:	92 10 20 02 	mov  2, %o1
   15960:	94 10 20 01 	mov  1, %o2
   15964:	96 10 20 3f 	mov  0x3f, %o3
   15968:	98 10 20 01 	mov  1, %o4
   1596c:	7f ff ff 72 	call  15734 <fill_a_scan>
   15970:	9a 10 20 00 	clr  %o5
   15974:	92 10 20 01 	mov  1, %o1
   15978:	94 10 20 01 	mov  1, %o2
   1597c:	96 10 20 3f 	mov  0x3f, %o3
   15980:	98 10 20 01 	mov  1, %o4
   15984:	7f ff ff 6c 	call  15734 <fill_a_scan>
   15988:	9a 10 20 00 	clr  %o5
   1598c:	92 10 20 00 	clr  %o1
   15990:	94 10 20 01 	mov  1, %o2
   15994:	96 10 20 3f 	mov  0x3f, %o3
   15998:	98 10 20 01 	mov  1, %o4
   1599c:	7f ff ff 66 	call  15734 <fill_a_scan>
   159a0:	9a 10 20 00 	clr  %o5
   159a4:	30 80 00 22 	b,a   15a2c <jpeg_simple_progression+0x220>
   159a8:	90 10 00 02 	mov  %g2, %o0
   159ac:	92 10 00 10 	mov  %l0, %o1
   159b0:	94 10 20 00 	clr  %o2
   159b4:	7f ff ff 79 	call  15798 <fill_dc_scans>
   159b8:	96 10 20 01 	mov  1, %o3
   159bc:	92 10 00 10 	mov  %l0, %o1
   159c0:	94 10 20 01 	mov  1, %o2
   159c4:	96 10 20 05 	mov  5, %o3
   159c8:	98 10 20 00 	clr  %o4
   159cc:	7f ff ff 63 	call  15758 <fill_scans>
   159d0:	9a 10 20 02 	mov  2, %o5
   159d4:	92 10 00 10 	mov  %l0, %o1
   159d8:	94 10 20 06 	mov  6, %o2
   159dc:	96 10 20 3f 	mov  0x3f, %o3
   159e0:	98 10 20 00 	clr  %o4
   159e4:	7f ff ff 5d 	call  15758 <fill_scans>
   159e8:	9a 10 20 02 	mov  2, %o5
   159ec:	92 10 00 10 	mov  %l0, %o1
   159f0:	94 10 20 01 	mov  1, %o2
   159f4:	96 10 20 3f 	mov  0x3f, %o3
   159f8:	98 10 20 02 	mov  2, %o4
   159fc:	7f ff ff 57 	call  15758 <fill_scans>
   15a00:	9a 10 20 01 	mov  1, %o5
   15a04:	92 10 00 10 	mov  %l0, %o1
   15a08:	94 10 20 01 	mov  1, %o2
   15a0c:	7f ff ff 63 	call  15798 <fill_dc_scans>
   15a10:	96 10 20 00 	clr  %o3
   15a14:	92 10 00 10 	mov  %l0, %o1
   15a18:	94 10 20 01 	mov  1, %o2
   15a1c:	96 10 20 3f 	mov  0x3f, %o3
   15a20:	98 10 20 01 	mov  1, %o4
   15a24:	7f ff ff 4d 	call  15758 <fill_scans>
   15a28:	9a 10 20 00 	clr  %o5
   15a2c:	01 00 00 00 	nop 
   15a30:	81 c7 e0 08 	ret 
   15a34:	81 e8 00 00 	restore 

00015a38 <init_destination>:
   15a38:	9d e3 bf 98 	save  %sp, -104, %sp
   15a3c:	90 10 00 18 	mov  %i0, %o0
   15a40:	e0 06 20 14 	ld  [ %i0 + 0x14 ], %l0
   15a44:	c2 06 20 04 	ld  [ %i0 + 4 ], %g1
   15a48:	c2 00 40 00 	ld  [ %g1 ], %g1
   15a4c:	92 10 20 01 	mov  1, %o1
   15a50:	9f c0 40 00 	call  %g1
   15a54:	15 00 00 04 	sethi  %hi(0x1000), %o2
   15a58:	d0 24 20 18 	st  %o0, [ %l0 + 0x18 ]
   15a5c:	d0 24 00 00 	st  %o0, [ %l0 ]
   15a60:	03 00 00 04 	sethi  %hi(0x1000), %g1
   15a64:	c2 24 20 04 	st  %g1, [ %l0 + 4 ]
   15a68:	81 c7 e0 08 	ret 
   15a6c:	81 e8 00 00 	restore 

00015a70 <empty_output_buffer>:
   15a70:	9d e3 bf 98 	save  %sp, -104, %sp
   15a74:	e0 06 20 14 	ld  [ %i0 + 0x14 ], %l0
   15a78:	d0 04 20 18 	ld  [ %l0 + 0x18 ], %o0
   15a7c:	92 10 20 01 	mov  1, %o1
   15a80:	15 00 00 04 	sethi  %hi(0x1000), %o2
   15a84:	40 00 77 4a 	call  337ac <fwrite@plt>
   15a88:	d6 04 20 14 	ld  [ %l0 + 0x14 ], %o3
   15a8c:	03 00 00 04 	sethi  %hi(0x1000), %g1
   15a90:	80 a2 00 01 	cmp  %o0, %g1
   15a94:	02 80 00 08 	be  15ab4 <empty_output_buffer+0x44>
   15a98:	82 10 20 24 	mov  0x24, %g1
   15a9c:	c4 06 00 00 	ld  [ %i0 ], %g2
   15aa0:	c2 20 a0 14 	st  %g1, [ %g2 + 0x14 ]
   15aa4:	c2 06 00 00 	ld  [ %i0 ], %g1
   15aa8:	c2 00 40 00 	ld  [ %g1 ], %g1
   15aac:	9f c0 40 00 	call  %g1
   15ab0:	90 10 00 18 	mov  %i0, %o0
   15ab4:	c2 04 20 18 	ld  [ %l0 + 0x18 ], %g1
   15ab8:	c2 24 00 00 	st  %g1, [ %l0 ]
   15abc:	03 00 00 04 	sethi  %hi(0x1000), %g1
   15ac0:	c2 24 20 04 	st  %g1, [ %l0 + 4 ]
   15ac4:	81 c7 e0 08 	ret 
   15ac8:	91 e8 20 01 	restore  %g0, 1, %o0

00015acc <term_destination>:
   15acc:	9d e3 bf 98 	save  %sp, -104, %sp
   15ad0:	e0 06 20 14 	ld  [ %i0 + 0x14 ], %l0
   15ad4:	05 00 00 04 	sethi  %hi(0x1000), %g2
   15ad8:	c2 04 20 04 	ld  [ %l0 + 4 ], %g1
   15adc:	a2 a0 80 01 	subcc  %g2, %g1, %l1
   15ae0:	02 80 00 0f 	be  15b1c <term_destination+0x50>
   15ae4:	92 10 20 01 	mov  1, %o1
   15ae8:	d0 04 20 18 	ld  [ %l0 + 0x18 ], %o0
   15aec:	94 10 00 11 	mov  %l1, %o2
   15af0:	40 00 77 2f 	call  337ac <fwrite@plt>
   15af4:	d6 04 20 14 	ld  [ %l0 + 0x14 ], %o3
   15af8:	80 a2 00 11 	cmp  %o0, %l1
   15afc:	02 80 00 08 	be  15b1c <term_destination+0x50>
   15b00:	82 10 20 24 	mov  0x24, %g1
   15b04:	c4 06 00 00 	ld  [ %i0 ], %g2
   15b08:	c2 20 a0 14 	st  %g1, [ %g2 + 0x14 ]
   15b0c:	c2 06 00 00 	ld  [ %i0 ], %g1
   15b10:	c2 00 40 00 	ld  [ %g1 ], %g1
   15b14:	9f c0 40 00 	call  %g1
   15b18:	90 10 00 18 	mov  %i0, %o0
   15b1c:	40 00 76 fd 	call  33710 <fflush@plt>
   15b20:	d0 04 20 14 	ld  [ %l0 + 0x14 ], %o0
   15b24:	40 00 76 ef 	call  336e0 <ferror@plt>
   15b28:	d0 04 20 14 	ld  [ %l0 + 0x14 ], %o0
   15b2c:	80 a2 20 00 	cmp  %o0, 0
   15b30:	02 80 00 08 	be  15b50 <term_destination+0x84>
   15b34:	82 10 20 24 	mov  0x24, %g1
   15b38:	c4 06 00 00 	ld  [ %i0 ], %g2
   15b3c:	c2 20 a0 14 	st  %g1, [ %g2 + 0x14 ]
   15b40:	c2 06 00 00 	ld  [ %i0 ], %g1
   15b44:	c2 00 40 00 	ld  [ %g1 ], %g1
   15b48:	9f c0 40 00 	call  %g1
   15b4c:	90 10 00 18 	mov  %i0, %o0
   15b50:	01 00 00 00 	nop 
   15b54:	81 c7 e0 08 	ret 
   15b58:	81 e8 00 00 	restore 

00015b5c <jpeg_stdio_dest>:
   15b5c:	9d e3 bf 98 	save  %sp, -104, %sp
   15b60:	c2 06 20 14 	ld  [ %i0 + 0x14 ], %g1
   15b64:	80 a0 60 00 	cmp  %g1, 0
   15b68:	32 80 00 0a 	bne,a   15b90 <jpeg_stdio_dest+0x34>
   15b6c:	c4 06 20 14 	ld  [ %i0 + 0x14 ], %g2
   15b70:	c2 06 20 04 	ld  [ %i0 + 4 ], %g1
   15b74:	c2 00 40 00 	ld  [ %g1 ], %g1
   15b78:	90 10 00 18 	mov  %i0, %o0
   15b7c:	92 10 20 00 	clr  %o1
   15b80:	9f c0 40 00 	call  %g1
   15b84:	94 10 20 1c 	mov  0x1c, %o2
   15b88:	d0 26 20 14 	st  %o0, [ %i0 + 0x14 ]
   15b8c:	c4 06 20 14 	ld  [ %i0 + 0x14 ], %g2
   15b90:	03 00 00 56 	sethi  %hi(0x15800), %g1
   15b94:	82 10 62 38 	or  %g1, 0x238, %g1	! 15a38 <init_destination>
   15b98:	c2 20 a0 08 	st  %g1, [ %g2 + 8 ]
   15b9c:	03 00 00 56 	sethi  %hi(0x15800), %g1
   15ba0:	82 10 62 70 	or  %g1, 0x270, %g1	! 15a70 <empty_output_buffer>
   15ba4:	c2 20 a0 0c 	st  %g1, [ %g2 + 0xc ]
   15ba8:	03 00 00 56 	sethi  %hi(0x15800), %g1
   15bac:	82 10 62 cc 	or  %g1, 0x2cc, %g1	! 15acc <term_destination>
   15bb0:	c2 20 a0 10 	st  %g1, [ %g2 + 0x10 ]
   15bb4:	f2 20 a0 14 	st  %i1, [ %g2 + 0x14 ]
   15bb8:	81 c7 e0 08 	ret 
   15bbc:	81 e8 00 00 	restore 

00015bc0 <jinit_compress_master>:
   15bc0:	9d e3 bf 98 	save  %sp, -104, %sp
   15bc4:	90 10 00 18 	mov  %i0, %o0
   15bc8:	40 00 04 00 	call  16bc8 <jinit_c_master_control>
   15bcc:	92 10 20 00 	clr  %o1
   15bd0:	c2 06 20 a8 	ld  [ %i0 + 0xa8 ], %g1
   15bd4:	80 a0 60 00 	cmp  %g1, 0
   15bd8:	12 80 00 09 	bne  15bfc <jinit_compress_master+0x3c>
   15bdc:	01 00 00 00 	nop 
   15be0:	40 00 0c 95 	call  18e34 <jinit_color_converter>
   15be4:	90 10 00 18 	mov  %i0, %o0
   15be8:	40 00 0f 77 	call  199c4 <jinit_downsampler>
   15bec:	90 10 00 18 	mov  %i0, %o0
   15bf0:	90 10 00 18 	mov  %i0, %o0
   15bf4:	40 00 08 e2 	call  17f7c <jinit_c_prep_controller>
   15bf8:	92 10 20 00 	clr  %o1
   15bfc:	40 00 1d a6 	call  1d294 <jinit_forward_dct>
   15c00:	90 10 00 18 	mov  %i0, %o0
   15c04:	c2 06 20 ac 	ld  [ %i0 + 0xac ], %g1
   15c08:	80 a0 60 00 	cmp  %g1, 0
   15c0c:	22 80 00 0b 	be,a   15c38 <jinit_compress_master+0x78>
   15c10:	c2 06 20 dc 	ld  [ %i0 + 0xdc ], %g1
   15c14:	c4 06 00 00 	ld  [ %i0 ], %g2
   15c18:	82 10 20 01 	mov  1, %g1
   15c1c:	c2 20 a0 14 	st  %g1, [ %g2 + 0x14 ]
   15c20:	c2 06 00 00 	ld  [ %i0 ], %g1
   15c24:	c2 00 40 00 	ld  [ %g1 ], %g1
   15c28:	9f c0 40 00 	call  %g1
   15c2c:	90 10 00 18 	mov  %i0, %o0
   15c30:	10 80 00 0c 	b  15c60 <jinit_compress_master+0xa0>
   15c34:	92 10 20 00 	clr  %o1
   15c38:	80 a0 60 00 	cmp  %g1, 0
   15c3c:	02 80 00 06 	be  15c54 <jinit_compress_master+0x94>
   15c40:	01 00 00 00 	nop 
   15c44:	40 00 1c 05 	call  1cc58 <jinit_phuff_encoder>
   15c48:	90 10 00 18 	mov  %i0, %o0
   15c4c:	10 80 00 05 	b  15c60 <jinit_compress_master+0xa0>
   15c50:	92 10 20 00 	clr  %o1
   15c54:	40 00 15 9c 	call  1b2c4 <jinit_huff_encoder>
   15c58:	90 10 00 18 	mov  %i0, %o0
   15c5c:	92 10 20 00 	clr  %o1
   15c60:	c2 06 20 a0 	ld  [ %i0 + 0xa0 ], %g1
   15c64:	80 a0 60 01 	cmp  %g1, 1
   15c68:	34 80 00 06 	bg,a   15c80 <jinit_compress_master+0xc0>
   15c6c:	92 10 20 01 	mov  1, %o1
   15c70:	c2 06 20 b0 	ld  [ %i0 + 0xb0 ], %g1
   15c74:	80 a0 60 00 	cmp  %g1, 0
   15c78:	32 80 00 02 	bne,a   15c80 <jinit_compress_master+0xc0>
   15c7c:	92 10 20 01 	mov  1, %o1
   15c80:	40 00 0a f7 	call  1885c <jinit_c_coef_controller>
   15c84:	90 10 00 18 	mov  %i0, %o0
   15c88:	90 10 00 18 	mov  %i0, %o0
   15c8c:	40 00 07 1f 	call  17908 <jinit_c_main_controller>
   15c90:	92 10 20 00 	clr  %o1
   15c94:	40 00 06 a7 	call  17730 <jinit_marker_writer>
   15c98:	90 10 00 18 	mov  %i0, %o0
   15c9c:	c2 06 20 04 	ld  [ %i0 + 4 ], %g1
   15ca0:	c2 00 60 18 	ld  [ %g1 + 0x18 ], %g1
   15ca4:	9f c0 40 00 	call  %g1
   15ca8:	90 10 00 18 	mov  %i0, %o0
   15cac:	c2 06 21 54 	ld  [ %i0 + 0x154 ], %g1
   15cb0:	c2 00 60 04 	ld  [ %g1 + 4 ], %g1
   15cb4:	9f c0 40 00 	call  %g1
   15cb8:	90 10 00 18 	mov  %i0, %o0
   15cbc:	01 00 00 00 	nop 
   15cc0:	81 c7 e0 08 	ret 
   15cc4:	81 e8 00 00 	restore 

00015cc8 <initial_setup>:
   15cc8:	9d e3 bf 98 	save  %sp, -104, %sp
   15ccc:	c2 06 20 1c 	ld  [ %i0 + 0x1c ], %g1
   15cd0:	80 a0 60 00 	cmp  %g1, 0
   15cd4:	22 80 00 0f 	be,a   15d10 <initial_setup+0x48>
   15cd8:	c4 06 00 00 	ld  [ %i0 ], %g2
   15cdc:	c2 06 20 18 	ld  [ %i0 + 0x18 ], %g1
   15ce0:	80 a0 60 00 	cmp  %g1, 0
   15ce4:	22 80 00 0b 	be,a   15d10 <initial_setup+0x48>
   15ce8:	c4 06 00 00 	ld  [ %i0 ], %g2
   15cec:	c2 06 20 34 	ld  [ %i0 + 0x34 ], %g1
   15cf0:	80 a0 60 00 	cmp  %g1, 0
   15cf4:	24 80 00 07 	ble,a   15d10 <initial_setup+0x48>
   15cf8:	c4 06 00 00 	ld  [ %i0 ], %g2
   15cfc:	c2 06 20 20 	ld  [ %i0 + 0x20 ], %g1
   15d00:	80 a0 60 00 	cmp  %g1, 0
   15d04:	34 80 00 0a 	bg,a   15d2c <initial_setup+0x64>
   15d08:	c4 06 20 1c 	ld  [ %i0 + 0x1c ], %g2
   15d0c:	c4 06 00 00 	ld  [ %i0 ], %g2
   15d10:	82 10 20 1f 	mov  0x1f, %g1
   15d14:	c2 20 a0 14 	st  %g1, [ %g2 + 0x14 ]
   15d18:	c2 06 00 00 	ld  [ %i0 ], %g1
   15d1c:	c2 00 40 00 	ld  [ %g1 ], %g1
   15d20:	9f c0 40 00 	call  %g1
   15d24:	90 10 00 18 	mov  %i0, %o0
   15d28:	c4 06 20 1c 	ld  [ %i0 + 0x1c ], %g2
   15d2c:	03 00 00 3f 	sethi  %hi(0xfc00), %g1
   15d30:	86 10 63 dc 	or  %g1, 0x3dc, %g3	! ffdc <_init-0x6f4>
   15d34:	80 a0 80 03 	cmp  %g2, %g3
   15d38:	34 80 00 07 	bg,a   15d54 <initial_setup+0x8c>
   15d3c:	c4 06 00 00 	ld  [ %i0 ], %g2
   15d40:	c2 06 20 18 	ld  [ %i0 + 0x18 ], %g1
   15d44:	80 a0 40 03 	cmp  %g1, %g3
   15d48:	24 80 00 0e 	ble,a   15d80 <initial_setup+0xb8>
   15d4c:	c2 06 20 30 	ld  [ %i0 + 0x30 ], %g1
   15d50:	c4 06 00 00 	ld  [ %i0 ], %g2
   15d54:	82 10 20 28 	mov  0x28, %g1
   15d58:	c2 20 a0 14 	st  %g1, [ %g2 + 0x14 ]
   15d5c:	c4 06 00 00 	ld  [ %i0 ], %g2
   15d60:	03 00 00 3f 	sethi  %hi(0xfc00), %g1
   15d64:	82 10 63 dc 	or  %g1, 0x3dc, %g1	! ffdc <_init-0x6f4>
   15d68:	c2 20 a0 18 	st  %g1, [ %g2 + 0x18 ]
   15d6c:	c2 06 00 00 	ld  [ %i0 ], %g1
   15d70:	c2 00 40 00 	ld  [ %g1 ], %g1
   15d74:	9f c0 40 00 	call  %g1
   15d78:	90 10 00 18 	mov  %i0, %o0
   15d7c:	c2 06 20 30 	ld  [ %i0 + 0x30 ], %g1
   15d80:	80 a0 60 08 	cmp  %g1, 8
   15d84:	02 80 00 0b 	be  15db0 <initial_setup+0xe8>
   15d88:	82 10 20 0d 	mov  0xd, %g1
   15d8c:	c4 06 00 00 	ld  [ %i0 ], %g2
   15d90:	c2 20 a0 14 	st  %g1, [ %g2 + 0x14 ]
   15d94:	c4 06 00 00 	ld  [ %i0 ], %g2
   15d98:	c2 06 20 30 	ld  [ %i0 + 0x30 ], %g1
   15d9c:	c2 20 a0 18 	st  %g1, [ %g2 + 0x18 ]
   15da0:	c2 06 00 00 	ld  [ %i0 ], %g1
   15da4:	c2 00 40 00 	ld  [ %g1 ], %g1
   15da8:	9f c0 40 00 	call  %g1
   15dac:	90 10 00 18 	mov  %i0, %o0
   15db0:	c2 06 20 34 	ld  [ %i0 + 0x34 ], %g1
   15db4:	80 a0 60 0a 	cmp  %g1, 0xa
   15db8:	04 80 00 10 	ble  15df8 <initial_setup+0x130>
   15dbc:	82 10 20 01 	mov  1, %g1
   15dc0:	c4 06 00 00 	ld  [ %i0 ], %g2
   15dc4:	82 10 20 18 	mov  0x18, %g1
   15dc8:	c2 20 a0 14 	st  %g1, [ %g2 + 0x14 ]
   15dcc:	c4 06 00 00 	ld  [ %i0 ], %g2
   15dd0:	c2 06 20 34 	ld  [ %i0 + 0x34 ], %g1
   15dd4:	c2 20 a0 18 	st  %g1, [ %g2 + 0x18 ]
   15dd8:	c4 06 00 00 	ld  [ %i0 ], %g2
   15ddc:	82 10 20 0a 	mov  0xa, %g1
   15de0:	c2 20 a0 1c 	st  %g1, [ %g2 + 0x1c ]
   15de4:	c2 06 00 00 	ld  [ %i0 ], %g1
   15de8:	c2 00 40 00 	ld  [ %g1 ], %g1
   15dec:	9f c0 40 00 	call  %g1
   15df0:	90 10 00 18 	mov  %i0, %o0
   15df4:	82 10 20 01 	mov  1, %g1
   15df8:	c2 26 20 e0 	st  %g1, [ %i0 + 0xe0 ]
   15dfc:	c2 26 20 e4 	st  %g1, [ %i0 + 0xe4 ]
   15e00:	a2 10 20 00 	clr  %l1
   15e04:	c2 06 20 34 	ld  [ %i0 + 0x34 ], %g1
   15e08:	80 a0 60 00 	cmp  %g1, 0
   15e0c:	04 80 00 4d 	ble  15f40 <initial_setup+0x278>
   15e10:	e0 06 20 3c 	ld  [ %i0 + 0x3c ], %l0
   15e14:	c2 04 20 08 	ld  [ %l0 + 8 ], %g1
   15e18:	82 00 7f ff 	add  %g1, -1, %g1
   15e1c:	80 a0 60 03 	cmp  %g1, 3
   15e20:	38 80 00 09 	bgu,a   15e44 <initial_setup+0x17c>
   15e24:	c4 06 00 00 	ld  [ %i0 ], %g2
   15e28:	c2 04 20 0c 	ld  [ %l0 + 0xc ], %g1
   15e2c:	80 a0 60 00 	cmp  %g1, 0
   15e30:	04 80 00 04 	ble  15e40 <initial_setup+0x178>
   15e34:	80 a0 60 04 	cmp  %g1, 4
   15e38:	24 80 00 0a 	ble,a   15e60 <initial_setup+0x198>
   15e3c:	c4 06 20 e0 	ld  [ %i0 + 0xe0 ], %g2
   15e40:	c4 06 00 00 	ld  [ %i0 ], %g2
   15e44:	82 10 20 10 	mov  0x10, %g1
   15e48:	c2 20 a0 14 	st  %g1, [ %g2 + 0x14 ]
   15e4c:	c2 06 00 00 	ld  [ %i0 ], %g1
   15e50:	c2 00 40 00 	ld  [ %g1 ], %g1
   15e54:	9f c0 40 00 	call  %g1
   15e58:	90 10 00 18 	mov  %i0, %o0
   15e5c:	c4 06 20 e0 	ld  [ %i0 + 0xe0 ], %g2
   15e60:	c2 04 20 08 	ld  [ %l0 + 8 ], %g1
   15e64:	80 a0 40 02 	cmp  %g1, %g2
   15e68:	26 80 00 02 	bl,a   15e70 <initial_setup+0x1a8>
   15e6c:	82 10 00 02 	mov  %g2, %g1
   15e70:	c2 26 20 e0 	st  %g1, [ %i0 + 0xe0 ]
   15e74:	c4 06 20 e4 	ld  [ %i0 + 0xe4 ], %g2
   15e78:	c2 04 20 0c 	ld  [ %l0 + 0xc ], %g1
   15e7c:	80 a0 40 02 	cmp  %g1, %g2
   15e80:	26 80 00 02 	bl,a   15e88 <initial_setup+0x1c0>
   15e84:	82 10 00 02 	mov  %g2, %g1
   15e88:	c2 26 20 e4 	st  %g1, [ %i0 + 0xe4 ]
   15e8c:	a2 04 60 01 	inc  %l1
   15e90:	c2 06 20 34 	ld  [ %i0 + 0x34 ], %g1
   15e94:	80 a0 40 11 	cmp  %g1, %l1
   15e98:	14 bf ff df 	bg  15e14 <initial_setup+0x14c>
   15e9c:	a0 04 20 54 	add  %l0, 0x54, %l0
   15ea0:	a2 10 20 00 	clr  %l1
   15ea4:	80 a0 60 00 	cmp  %g1, 0
   15ea8:	04 80 00 26 	ble  15f40 <initial_setup+0x278>
   15eac:	e0 06 20 3c 	ld  [ %i0 + 0x3c ], %l0
   15eb0:	e2 24 20 04 	st  %l1, [ %l0 + 4 ]
   15eb4:	82 10 20 08 	mov  8, %g1
   15eb8:	c2 24 20 24 	st  %g1, [ %l0 + 0x24 ]
   15ebc:	c2 06 20 18 	ld  [ %i0 + 0x18 ], %g1
   15ec0:	d0 04 20 08 	ld  [ %l0 + 8 ], %o0
   15ec4:	d2 06 20 e0 	ld  [ %i0 + 0xe0 ], %o1
   15ec8:	90 58 40 08 	smul  %g1, %o0, %o0
   15ecc:	40 00 1f bc 	call  1ddbc <jdiv_round_up>
   15ed0:	93 2a 60 03 	sll  %o1, 3, %o1
   15ed4:	d0 24 20 1c 	st  %o0, [ %l0 + 0x1c ]
   15ed8:	c2 06 20 1c 	ld  [ %i0 + 0x1c ], %g1
   15edc:	d0 04 20 0c 	ld  [ %l0 + 0xc ], %o0
   15ee0:	d2 06 20 e4 	ld  [ %i0 + 0xe4 ], %o1
   15ee4:	90 58 40 08 	smul  %g1, %o0, %o0
   15ee8:	40 00 1f b5 	call  1ddbc <jdiv_round_up>
   15eec:	93 2a 60 03 	sll  %o1, 3, %o1
   15ef0:	d0 24 20 20 	st  %o0, [ %l0 + 0x20 ]
   15ef4:	c2 06 20 18 	ld  [ %i0 + 0x18 ], %g1
   15ef8:	d0 04 20 08 	ld  [ %l0 + 8 ], %o0
   15efc:	90 58 40 08 	smul  %g1, %o0, %o0
   15f00:	40 00 1f af 	call  1ddbc <jdiv_round_up>
   15f04:	d2 06 20 e0 	ld  [ %i0 + 0xe0 ], %o1
   15f08:	d0 24 20 28 	st  %o0, [ %l0 + 0x28 ]
   15f0c:	c2 06 20 1c 	ld  [ %i0 + 0x1c ], %g1
   15f10:	d0 04 20 0c 	ld  [ %l0 + 0xc ], %o0
   15f14:	90 58 40 08 	smul  %g1, %o0, %o0
   15f18:	40 00 1f a9 	call  1ddbc <jdiv_round_up>
   15f1c:	d2 06 20 e4 	ld  [ %i0 + 0xe4 ], %o1
   15f20:	d0 24 20 2c 	st  %o0, [ %l0 + 0x2c ]
   15f24:	82 10 20 01 	mov  1, %g1
   15f28:	c2 24 20 30 	st  %g1, [ %l0 + 0x30 ]
   15f2c:	a2 04 60 01 	inc  %l1
   15f30:	c2 06 20 34 	ld  [ %i0 + 0x34 ], %g1
   15f34:	80 a0 40 11 	cmp  %g1, %l1
   15f38:	14 bf ff de 	bg  15eb0 <initial_setup+0x1e8>
   15f3c:	a0 04 20 54 	add  %l0, 0x54, %l0
   15f40:	d2 06 20 e4 	ld  [ %i0 + 0xe4 ], %o1
   15f44:	d0 06 20 1c 	ld  [ %i0 + 0x1c ], %o0
   15f48:	40 00 1f 9d 	call  1ddbc <jdiv_round_up>
   15f4c:	93 2a 60 03 	sll  %o1, 3, %o1
   15f50:	d0 26 20 e8 	st  %o0, [ %i0 + 0xe8 ]
   15f54:	81 c7 e0 08 	ret 
   15f58:	81 e8 00 00 	restore 

00015f5c <validate_script>:
   15f5c:	9d e3 b5 70 	save  %sp, -2704, %sp
   15f60:	c2 06 20 a0 	ld  [ %i0 + 0xa0 ], %g1
   15f64:	80 a0 60 00 	cmp  %g1, 0
   15f68:	34 80 00 0c 	bg,a   15f98 <validate_script+0x3c>
   15f6c:	ee 06 20 a4 	ld  [ %i0 + 0xa4 ], %l7
   15f70:	c4 06 00 00 	ld  [ %i0 ], %g2
   15f74:	82 10 20 11 	mov  0x11, %g1
   15f78:	c2 20 a0 14 	st  %g1, [ %g2 + 0x14 ]
   15f7c:	c2 06 00 00 	ld  [ %i0 ], %g1
   15f80:	c0 20 60 18 	clr  [ %g1 + 0x18 ]
   15f84:	c2 06 00 00 	ld  [ %i0 ], %g1
   15f88:	c2 00 40 00 	ld  [ %g1 ], %g1
   15f8c:	9f c0 40 00 	call  %g1
   15f90:	90 10 00 18 	mov  %i0, %o0
   15f94:	ee 06 20 a4 	ld  [ %i0 + 0xa4 ], %l7
   15f98:	c2 05 e0 14 	ld  [ %l7 + 0x14 ], %g1
   15f9c:	80 a0 60 00 	cmp  %g1, 0
   15fa0:	12 80 00 06 	bne  15fb8 <validate_script+0x5c>
   15fa4:	82 10 20 01 	mov  1, %g1
   15fa8:	c2 05 e0 18 	ld  [ %l7 + 0x18 ], %g1
   15fac:	80 a0 60 3f 	cmp  %g1, 0x3f
   15fb0:	02 80 00 16 	be  16008 <validate_script+0xac>
   15fb4:	82 10 20 01 	mov  1, %g1
   15fb8:	c2 26 20 dc 	st  %g1, [ %i0 + 0xdc ]
   15fbc:	a2 07 b5 d0 	add  %fp, -2608, %l1
   15fc0:	c2 06 20 34 	ld  [ %i0 + 0x34 ], %g1
   15fc4:	80 a0 60 00 	cmp  %g1, 0
